ccopy_reg
_reconstructor
p0
(cdebian_linux.config
ConfigCore
p1
c__builtin__
dict
p2
(dp3
(Vbase
p4
Vhppa
p5
Vnone
p6
tp7
(dp8
Vimplicit-flavour
p9
I01
sVflavours
p10
(lp11
Vparisc
p12
aVparisc64-smp
p13
ass(Vdescription
p14
Valpha
p15
NValpha-smp
p16
tp17
(dp18
Vhardware
p19
VAlpha SMP
p20
sVhardware-long
p21
VDEC Alpha SMP systems with extended kernel start address (Wildfire, Titan, Marvel)
p22
ss(Vbase
p23
Vsh4
p24
tp25
(dp26
Vkernel-arch
p27
Vsh
p28
sVfeaturesets
p29
(lp30
g6
ass(Vimage
p31
Vsparc64
p32
tp33
(dp34
Vinstall-stem
p35
Vvmlinuz
p36
sVconfigs
p37
(lp38
sVsuggests
p39
Vsilo, fdutils
p40
ss(Vimage
p41
Vmips
p42
NVocteon
p43
tp44
(dp45
Vconfigs
p46
(lp47
Vkernelarch-mips/config.octeon
p48
ass(Vrelations
p49
g5
tp50
(dp51
Vgcc-4.9
p52
Vgcc-4.9 <!stage1>, binutils-hppa64 <!stage1>, gcc-4.9-hppa64 <!stage1>
p53
ss(Vdescription
p54
Vmipsel
p55
NV5kc-malta
p56
tp57
(dp58
Vhardware
p59
VMIPS Malta (64-bit)
p60
sVhardware-long
p61
VMIPS Malta boards (64-bit)
p62
ss(Vbuild
p63
g42
tp64
(dp65
Vimage-file
p66
Vvmlinux
p67
ss(Vbuild
p68
Vppc64el
p69
tp70
(dp71
Vimage-file
p72
Vvmlinux
p73
sVvdso
p74
I01
ss(Vimage
p75
g55
NVloongson-3
p76
tp77
(dp78
Vconfigs
p79
(lp80
Vkernelarch-mips/config.loongson-3
p81
ass(Vbase
p82
Vamd64
p83
Vnone
p84
tp85
(dp86
Vflavours
p87
(lp88
Vamd64
p89
ass(Vbuild
p90
Vi386
p91
tp92
(dp93
Vimage-file
p94
Varch/x86/boot/bzImage
p95
sVvdso
p96
I01
ss(Vimage
p97
g91
NV686-pae
p98
tp99
(dp100
Vconfigs
p101
(lp102
Vkernelarch-x86/config-arch-32
p103
aVi386/config.686-pae
p104
asVrecommends
p105
Vlibc6-i686
p106
ss(g4
Vpowerpc
p107
g6
tp108
(dp109
g9
I01
sg10
(lp110
Vpowerpc
p111
aVpowerpc-smp
p112
aVpowerpc64
p113
ass(Vimage
p114
g15
tp115
(dp116
Vinstall-stem
p117
Vvmlinuz
p118
sVsuggests
p119
Vaboot, fdutils
p120
ss(g4
Varmel
p121
g6
tp122
(dp123
g9
I01
sg10
(lp124
Vmarvell
p125
aVversatile
p126
ass(Vbuild
p127
Vpowerpcspe
p128
tp129
(dp130
Vimage-file
p131
Vvmlinux
p132
sVvdso
p133
I01
ss(Vimage
p134
Vmips64
p135
NV5kc-malta
p136
tp137
(dp138
Vconfigs
p139
(lp140
Vkernelarch-mips/config.5kc-malta
p141
ass(Vbase
p142
Vm68k
p143
tp144
(dp145
Vkernel-arch
p146
Vm68k
p147
sg29
(lp148
g6
asVcflags
p149
V-ffreestanding
p150
sVcompiler
p151
Vgcc-4.8
p152
ss(Vbase
p153
g91
tp154
(dp155
Vkernel-arch
p156
Vx86
p157
sVfeaturesets
p158
(lp159
Vnone
p160
aVrt
p161
asVcompiler
p162
Vgcc-5
p163
ss(Vdescription
p164
g91
Vnone
p165
V686-pae
p166
tp167
(dp168
Vparts
p169
(lp170
Vxen
p171
ass(Vbuild
p172
g135
tp173
(dp174
Vimage-file
p175
Vvmlinux
p176
ss(g4
g24
g6
tp177
(dp178
g9
I01
sg10
(lp179
Vsh7751r
p180
aVsh7785lcr
p181
ass(Vimage
p182
Vppc64
p183
NVpowerpc64
p184
tp185
(dp186
Vconfigs
p187
(lp188
Vkernelarch-powerpc/config-arch-64
p189
aVkernelarch-powerpc/config-arch-64-be
p190
ass(Vimage
p191
g121
tp192
(dp193
Vinstall-stem
p194
Vvmlinuz
p195
sVconfigs
p196
(lp197
Vkernelarch-arm/config
p198
aVarmel/config
p199
asVsuggests
p200
Vfdutils
p201
ss(Vimage
p202
g121
NVmarvell
p203
tp204
(dp205
Vcheck-size
p206
L2097080L
sVbreaks
p207
Vflash-kernel (<< 3.57~)
p208
sVrecommends
p209
Vu-boot-tools
p210
sVcheck-size-with-dtb
p211
I01
ss(g4
Vmips64el
p212
g6
tp213
(dp214
g9
I01
sg10
(lp215
V5kc-malta
p216
aVloongson-3
p217
aVocteon
p218
ass(Vbuild
p219
g83
tp220
(dp221
Vvdso
p222
I01
sVimage-file
p223
Varch/x86/boot/bzImage
p224
sVdebug-info
p225
I01
ss(Vimage
p226
g69
NVpowerpc64le
p227
tp228
(dp229
Vconfigs
p230
(lp231
Vkernelarch-powerpc/config-arch-64
p232
aVkernelarch-powerpc/config-arch-64-le
p233
ass(Vimage
p234
g55
NV5kc-malta
p235
tp236
(dp237
Vconfigs
p238
(lp239
Vkernelarch-mips/config.5kc-malta
p240
ass(Vimage
p241
g143
tp242
(dp243
Vinstall-stem
p244
Vvmlinuz
p245
sVsuggests
p246
Vvmelilo, fdutils
p247
ss(Vimage
p248
g212
tp249
(dp250
Vinstall-stem
p251
Vvmlinux
p252
ss(Vdescription
p253
g183
NVpowerpc64
p254
tp255
(dp256
Vhardware
p257
V64-bit PowerPC
p258
ss(Vbuild
p259
g15
tp260
(dp261
Vimage-file
p262
Varch/alpha/boot/vmlinux.gz
p263
ss(Vdescription
p264
g24
NVsh7785lcr
p265
tp266
(dp267
Vhardware
p268
Vsh7785lcr
p269
sVhardware-long
p270
VRenesas SH7785 reference board
p271
ss(Vbase
p272
g69
tp273
(dp274
Vkernel-arch
p275
Vpowerpc
p276
sg29
(lp277
g6
ass(Vbase
p278
g183
tp279
(dp280
Vkernel-arch
p281
Vpowerpc
p282
sg29
(lp283
g6
ass(Vdescription
p284
g55
NVloongson-2f
p285
tp286
(dp287
Vhardware
p288
VLoongson 2F
p289
sVhardware-long
p290
VLemote Loongson 2F systems
p291
ss(Vimage
p292
Varmhf
p293
tp294
(dp295
Vinstall-stem
p296
Vvmlinuz
p297
sVconfigs
p298
(lp299
Vkernelarch-arm/config
p300
asVsuggests
p301
Vfdutils
p302
ss(Vdescription
p303
g83
g84
Vamd64
p304
tp305
(dp306
Vparts
p307
(lp308
Vxen
p309
ass(Vimage
p310
g69
tp311
(dp312
Vinstall-stem
p313
Vvmlinux
p314
sVconfigs
p315
(lp316
sVsuggests
p317
Vmkvmlinuz
p318
ss(Vdescription
p319
NVrt
p320
tp321
(dp322
Vparts
p323
(lp324
Vrt
p325
asVpart-short-rt
p326
VPREEMPT_RT
p327
sVpart-long-rt
p328
VThis kernel includes the PREEMPT_RT realtime patch set.
p329
ss(Vbase
p330
g212
tp331
(dp332
Vkernel-arch
p333
Vmips
p334
sg29
(lp335
g6
ass(Vdescription
p336
g32
NVsparc64-smp
p337
tp338
(dp339
Vhardware
p340
Vmultiprocessor 64-bit UltraSPARC
p341
ss(g4
g135
g6
tp342
(dp343
g9
I01
sg10
(lp344
V5kc-malta
p345
aVocteon
p346
ass(Vdescription
p347
g32
NVsparc64
p348
tp349
(dp350
Vhardware
p351
Vuniprocessor 64-bit UltraSPARC
p352
ss(Vimage
p353
Vs390x
p354
tp355
(dp356
Vinstall-stem
p357
Vvmlinuz
p358
sVbootloaders
p359
(lp360
Vs390-tools
p361
asVconfigs
p362
(lp363
ss(Vdescription
p364
g293
NVarmmp
p365
tp366
(dp367
Vhardware
p368
VARMv7 multiplatform compatible SoCs
p369
sVhardware-long
p370
VARMv7 multiplatform kernel. See\u000ahttps://wiki.debian.org/DebianKernel/ARMMP for details of supported\u000aplatforms
p371
ss(Vbase
p372
g15
tp373
(dp374
Vkernel-arch
p375
Valpha
p376
sg29
(lp377
g6
ass(Vbuild
p378
g143
tp379
(dp380
Vimage-file
p381
Vvmlinux.gz
p382
ss(Vdescription
p383
g107
NVpowerpc64
p384
tp385
(dp386
Vhardware
p387
V64-bit PowerPC
p388
ss(Vdescription
p389
g212
NV5kc-malta
p390
tp391
(dp392
Vhardware
p393
VMIPS Malta
p394
sVhardware-long
p395
VMIPS Malta boards
p396
ss(Vbuild
p397
g5
tp398
(dp399
Vimage-file
p400
Vvmlinux
p401
ss(Vbase
p402
g121
tp403
(dp404
Vkernel-arch
p405
Varm
p406
sg29
(lp407
g6
ass(Vimage
p408
g83
NVamd64
p409
tp410
(dp411
Vconfigs
p412
(lp413
Vkernelarch-x86/config-arch-64
p414
ass(Vdescription
p415
tp416
(dp417
Vpart-long-up
p418
VThis kernel is not suitable for SMP (multi-processor,\u000amulti-core or hyper-threaded) systems.
p419
sVpart-long-xen
p420
VThis kernel also runs on a Xen hypervisor.\u000aIt supports both privileged (dom0) and unprivileged (domU) operation.
p421
ss(Vdescription
p422
g5
NVparisc64-smp
p423
tp424
(dp425
Vhardware
p426
Vmultiprocessor 64-bit PA-RISC
p427
sVhardware-long
p428
VHP PA-RISC 64-bit SMP systems with support for more than 4 GB RAM
p429
ss(Vimage
p430
Varm64
p431
tp432
(dp433
Vinstall-stem
p434
Vvmlinuz
p435
ss(Vbase
p436
g5
tp437
(dp438
Vkernel-arch
p439
Vparisc
p440
sg29
(lp441
g6
ass(g4
g55
g6
tp442
(dp443
g9
I01
sg10
(lp444
V4kc-malta
p445
aV5kc-malta
p446
aVloongson-2e
p447
aVloongson-2f
p448
aVloongson-3
p449
ass(Vimage
p450
g107
tp451
(dp452
Vinstall-stem
p453
Vvmlinux
p454
sVconfigs
p455
(lp456
sVsuggests
p457
Vmkvmlinuz
p458
ss(Vdescription
p459
g42
NVocteon
p460
tp461
(dp462
Vhardware
p463
VOcteon
p464
sVhardware-long
p465
VCavium Networks Octeon
p466
ss(Vdescription
p467
g354
NVs390x
p468
tp469
(dp470
Vhardware
p471
VIBM zSeries
p472
ss(Vrelations
p473
g91
tp474
(dp475
Vheaders%gcc-5
p476
Vlinux-compiler-gcc-5-x86
p477
ss(Vdescription
p478
g5
NVparisc
p479
tp480
(dp481
Vhardware
p482
V32-bit PA-RISC
p483
sVhardware-long
p484
VHP PA-RISC 32-bit systems with max 4 GB RAM
p485
ss(Vimage
p486
g212
NVocteon
p487
tp488
(dp489
Vconfigs
p490
(lp491
Vkernelarch-mips/config.octeon
p492
ass(Vbuild
p493
g183
tp494
(dp495
Vimage-file
p496
Vvmlinux
p497
sVvdso
p498
I01
ss(Vversion
p499
tp500
(dp501
Vupstream
p502
V4.4
p503
sVabiname
p504
V4.4.0-1
p505
sVabiname_base
p506
V4.4.0
p507
sVsource
p508
V4.4.2-3
p509
ss(Vimage
p510
g128
tp511
(dp512
Vinstall-stem
p513
Vvmlinux
p514
sVsuggests
p515
Vmkvmlinuz
p516
ss(Vbuild
p517
g431
tp518
(dp519
Vvdso
p520
I01
sVimage-file
p521
Varch/arm64/boot/Image
p522
sVdebug-info
p523
I01
ss(Vdescription
p524
g107
NVpowerpc
p525
tp526
(dp527
Vhardware
p528
Vuniprocessor 32-bit PowerPC
p529
ss(Vimage
p530
g431
NVarm64
p531
tp532
(dp533
s(Vdescription
p534
g135
NVocteon
p535
tp536
(dp537
Vhardware
p538
VOcteon
p539
sVhardware-long
p540
VCavium Networks Octeon
p541
ss(Vdescription
p542
g91
NV686-pae
p543
tp544
(dp545
Vparts
p546
(lp547
Vpae
p548
asVhardware
p549
Vmodern PCs
p550
sVhardware-long
p551
VPCs with one or more processors supporting PAE
p552
ss(Vbuild
p553
g354
tp554
(dp555
Vimage-file
p556
Varch/s390/boot/image
p557
sVvdso
p558
I01
ss(Vbase
p559
g83
tp560
(dp561
Vkernel-arch
p562
Vx86
p563
sVfeaturesets
p564
(lp565
Vnone
p566
aVrt
p567
asVcompiler
p568
Vgcc-5
p569
ss(Vdescription
p570
g42
NV5kc-malta
p571
tp572
(dp573
Vhardware
p574
VMIPS Malta (64-bit)
p575
sVhardware-long
p576
VMIPS Malta boards (64-bit)
p577
ss(Vimage
p578
g212
NVloongson-3
p579
tp580
(dp581
Vconfigs
p582
(lp583
Vkernelarch-mips/config.loongson-3
p584
ass(Vbase
p585
g354
tp586
(dp587
Vkernel-arch
p588
Vs390
p589
sg29
(lp590
g6
ass(Vimage
p591
g91
NV686
p592
tp593
(dp594
Vconfigs
p595
(lp596
Vkernelarch-x86/config-arch-32
p597
aVi386/config.686
p598
asVrecommends
p599
Vlibc6-i686
p600
ss(Vimage
p601
g354
NVs390x
p602
tp603
(dp604
Vconfigs
p605
(lp606
Vkernelarch-s390/config-arch-64
p607
ass(Vbase
p608
Vs390
p609
tp610
(dp611
Vkernel-arch
p612
Vs390
p613
sVfeaturesets
p614
(lp615
ss(Vrelations
p616
tp617
(dp618
Vgcc-4.9
p619
Vgcc-4.9 <!stage1>
p620
sVinitramfs-fallback
p621
Vlinux-initramfs-tool
p622
sVinitramfs-tools
p623
Vinitramfs-tools (>= 0.110~)
p624
sVgcc-5
p625
Vgcc-5 <!stage1>
p626
sVgcc-4.8
p627
Vgcc-4.8 <!stage1>
p628
ss(Vbase
p629
g293
tp630
(dp631
Vkernel-arch
p632
Varm
p633
sg29
(lp634
g6
ass(Vbuild
p635
g293
tp636
(dp637
Vimage-file
p638
Varch/arm/boot/zImage
p639
sVvdso
p640
I01
ss(Vbase
p641
g128
tp642
(dp643
Vkernel-arch
p644
Vpowerpc
p645
sg29
(lp646
g6
ass(Vbase
p647
g431
Vnone
p648
tp649
(dp650
Vflavours
p651
(lp652
Varm64
p653
ass(Vbase
p654
Vx32
p655
tp656
(dp657
Vkernel-arch
p658
Vx86
p659
sVfeaturesets
p660
(lp661
ss(Vbase
p662
tp663
(dp664
Vfeaturesets
p665
(lp666
Vnone
p667
aVrt
p668
asVcompiler
p669
Vgcc-4.9
p670
sVarches
p671
(lp672
Valpha
p673
aVamd64
p674
aVarm64
p675
aVarmel
p676
aVarmhf
p677
aVhppa
p678
aVi386
p679
aVm68k
p680
aVmips
p681
aVmipsel
p682
aVmips64
p683
aVmips64el
p684
aVor1k
p685
aVpowerpc
p686
aVpowerpcspe
p687
aVppc64
p688
aVppc64el
p689
aVs390
p690
aVs390x
p691
aVsh4
p692
aVsparc
p693
aVsparc64
p694
aVx32
p695
ass(Vimage
p696
g55
NV4kc-malta
p697
tp698
(dp699
Vconfigs
p700
(lp701
Vkernelarch-mips/config.4kc-malta
p702
ass(g4
g32
g6
tp703
(dp704
g9
I01
sg10
(lp705
Vsparc64
p706
aVsparc64-smp
p707
ass(Vdescription
p708
g83
NVamd64
p709
tp710
(dp711
Vhardware
p712
V64-bit PCs
p713
sVhardware-long
p714
VPCs with AMD64, Intel 64 or VIA Nano processors
p715
ss(Vbase
p716
g42
tp717
(dp718
Vkernel-arch
p719
Vmips
p720
sg29
(lp721
g6
ass(Vdescription
p722
g69
NVpowerpc64le
p723
tp724
(dp725
Vhardware
p726
VLittle-endian 64-bit PowerPC
p727
ss(Vdescription
p728
g55
NVloongson-2e
p729
tp730
(dp731
Vhardware
p732
VLoongson 2E
p733
sVhardware-long
p734
VLemote Loongson 2E systems
p735
ss(Vbuild
p736
g121
tp737
(dp738
Vimage-file
p739
Varch/arm/boot/zImage
p740
ss(g4
g143
g6
tp741
(dp742
g9
I01
sg10
(lp743
Vm68k
p744
ass(Vbase
p745
g83
Vrt
p746
tp747
(dp748
Vflavours
p749
(lp750
Vamd64
p751
ass(Vimage
p752
g107
NVpowerpc-smp
p753
tp754
(dp755
Vconfigs
p756
(lp757
Vpowerpc/config.powerpc
p758
aVpowerpc/config.powerpc-smp
p759
ass(Vimage
p760
g24
NVsh7785lcr
p761
tp762
(dp763
Vcheck-size
p764
L4194304L
sVrecommends
p765
Vu-boot-tools
p766
ss(Vrelations
p767
g121
tp768
(dp769
Vheaders%gcc-4.9
p770
Vlinux-compiler-gcc-4.9-arm
p771
ss(Vimage
p772
g42
NV4kc-malta
p773
tp774
(dp775
Vconfigs
p776
(lp777
Vkernelarch-mips/config.4kc-malta
p778
ass(Vbuild
p779
g55
tp780
(dp781
Vimage-file
p782
Vvmlinux
p783
ss(Vimage
p784
g135
NVocteon
p785
tp786
(dp787
Vconfigs
p788
(lp789
Vkernelarch-mips/config.octeon
p790
ass(Vdescription
p791
g42
NV4kc-malta
p792
tp793
(dp794
Vhardware
p795
VMIPS Malta
p796
sVhardware-long
p797
VMIPS Malta boards
p798
ss(Vbuild
p799
g212
tp800
(dp801
Vimage-file
p802
Vvmlinux
p803
ss(Vimage
p804
g183
tp805
(dp806
Vinstall-stem
p807
Vvmlinux
p808
sVconfigs
p809
(lp810
sVsuggests
p811
Vmkvmlinuz
p812
ss(Vbase
p813
NVrt
p814
tp815
(dp816
Venabled
p817
I01
ss(Vbuild
p818
g24
tp819
(dp820
Vimage-file
p821
Varch/sh/boot/zImage
p822
ss(Vimage
p823
g32
NVsparc64-smp
p824
tp825
(dp826
Vconfigs
p827
(lp828
Vkernelarch-sparc/config-smp
p829
ass(Vbase
p830
g5
NVparisc64-smp
p831
tp832
(dp833
Vcflags
p834
V-fno-cse-follow-jumps
p835
sVoverride-host-type
p836
Vhppa64-linux-gnu
p837
ss(Vdescription
p838
g143
NVm68k
p839
tp840
(dp841
Vhardware
p842
VMotorola MC68020+ family
p843
ss(Vimage
p844
g32
NVsparc64
p845
tp846
(dp847
Vconfigs
p848
(lp849
Vkernelarch-sparc/config-up
p850
ass(Vrelations
p851
g83
tp852
(dp853
Vheaders%gcc-5
p854
Vlinux-compiler-gcc-5-x86
p855
ss(Vdescription
p856
g55
NVloongson-3
p857
tp858
(dp859
Vhardware
p860
VLoongson 3A/3B
p861
sVhardware-long
p862
VLoongson 3A or 3B based systems (e.g. from Loongson or Lemote)
p863
ss(g4
g293
g6
tp864
(dp865
g9
I01
sg10
(lp866
Varmmp
p867
aVarmmp-lpae
p868
ass(Vbase
p869
g91
g165
tp870
(dp871
Vflavours
p872
(lp873
V686
p874
aV686-pae
p875
ass(Vxen
p876
g83
g84
Vamd64
p877
tp878
(dp879
Vflavours
p880
(lp881
Vamd64
p882
ass(Vdescription
p883
g121
NVversatile
p884
tp885
(dp886
Vhardware
p887
VVersatile
p888
sVhardware-long
p889
VVersatile systems (PB, AB, Qemu)
p890
ss(Vbase
p891
g107
tp892
(dp893
Vkernel-arch
p894
Vpowerpc
p895
sg29
(lp896
g6
ass(Vrelations
p897
g354
tp898
(dp899
Vheaders%gcc-4.9
p900
Vlinux-compiler-gcc-4.9-s390
p901
ss(Vimage
p902
g42
tp903
(dp904
Vinstall-stem
p905
Vvmlinux
p906
ss(Vdescription
p907
g135
NV5kc-malta
p908
tp909
(dp910
Vhardware
p911
VMIPS Malta
p912
sVhardware-long
p913
VMIPS Malta boards
p914
ss(g4
g69
g6
tp915
(dp916
g9
I01
sg10
(lp917
Vpowerpc64le
p918
ass(Vdescription
p919
g91
NV686
p920
tp921
(dp922
Vhardware
p923
Volder PCs
p924
sVhardware-long
p925
VPCs with one or more processors not supporting PAE
p926
ss(Vimage
p927
g5
tp928
(dp929
Vinstall-stem
p930
Vvmlinux
p931
sVsuggests
p932
Vpalo
p933
ss(Vbase
p934
g32
tp935
(dp936
Vkernel-arch
p937
Vsparc
p938
sg29
(lp939
g6
ass(Vdescription
p940
g121
NVmarvell
p941
tp942
(dp943
Vhardware
p944
VMarvell Kirkwood/Orion
p945
sVhardware-long
p946
VMarvell Kirkwood based systems (SheevaPlug, QNAP TS-119/TS-219, etc)\u000aand Orion 5181, 5182 and 5281 based systems (QNAP TS-109/TS-209, etc)
p947
ss(Vdescription
p948
g293
NVarmmp-lpae
p949
tp950
(dp951
Vhardware
p952
VARMv7 multiplatform compatible SoCs supporting LPAE
p953
sVhardware-long
p954
VARMv7 multiplatform kernel supporting LPAE. See\u000ahttps://wiki.debian.org/DebianKernel/ARMMP for details of supported\u000aplatforms.
p955
ss(Vimage
p956
g212
NV5kc-malta
p957
tp958
(dp959
Vconfigs
p960
(lp961
Vkernelarch-mips/config.5kc-malta
p962
ass(Vbuild
p963
g32
tp964
(dp965
Vimage-file
p966
Varch/sparc/boot/zImage
p967
ss(Vimage
p968
tp969
(dp970
Vinitramfs-generators
p971
(lp972
Vinitramfs-tools
p973
aVinitramfs-fallback
p974
ass(Vimage
p975
g107
NVpowerpc64
p976
tp977
(dp978
Vconfigs
p979
(lp980
Vkernelarch-powerpc/config-arch-64
p981
aVkernelarch-powerpc/config-arch-64-be
p982
ass(Vbase
p983
g55
tp984
(dp985
Vkernel-arch
p986
Vmips
p987
sg29
(lp988
g6
ass(g4
g15
g6
tp989
(dp990
g9
I01
sg10
(lp991
Valpha-generic
p992
aValpha-smp
p993
ass(g4
g42
g6
tp994
(dp995
g9
I01
sg10
(lp996
V4kc-malta
p997
aV5kc-malta
p998
aVocteon
p999
ass(Vimage
p1000
g83
tp1001
(dp1002
Vinstall-stem
p1003
Vvmlinuz
p1004
sVbootloaders
p1005
(lp1006
Vgrub-pc
p1007
aVgrub-efi
p1008
aVextlinux
p1009
asVbreaks
p1010
Vxserver-xorg-input-vmmouse (<< 1:13.0.99)
p1011
sVconfigs
p1012
(lp1013
ss(Vbuild
p1014
g91
NV686-pae
p1015
tp1016
(dp1017
Vdebug-info
p1018
I01
ss(Vimage
p1019
g42
NV5kc-malta
p1020
tp1021
(dp1022
Vconfigs
p1023
(lp1024
Vkernelarch-mips/config.5kc-malta
p1025
ass(Vdescription
p1026
g212
NVloongson-3
p1027
tp1028
(dp1029
Vhardware
p1030
VLoongson 3A/3B
p1031
sVhardware-long
p1032
VLoongson 3A or 3B based systems (e.g. from Loongson or Lemote)
p1033
ss(Vimage
p1034
g24
tp1035
(dp1036
Vinstall-stem
p1037
Vvmlinuz
p1038
sVsuggests
p1039
Vfdutils
p1040
ss(Vabi
p1041
tp1042
(dp1043
Vabiname
p1044
V1
p1045
ss(Vbuild
p1046
g354
NVs390x
p1047
tp1048
(dp1049
Vdebug-info
p1050
I01
ss(Vdescription
p1051
g431
NVarm64
p1052
tp1053
(dp1054
Vhardware
p1055
V64-bit ARMv8 machines
p1056
ss(g4
g354
g6
tp1057
(dp1058
g9
I01
sg10
(lp1059
Vs390x
p1060
ass(Vdescription
p1061
g91
tp1062
(dp1063
Vpart-long-pae
p1064
VThis kernel requires PAE (Physical Address Extension).\u000aThis feature is supported by the Intel Pentium Pro/II/III/4/4M/D, Xeon,\u000aCore and Atom; AMD Geode NX, Athlon (K7), Duron, Opteron, Sempron,\u000aTurion or Phenom; Transmeta Efficeon; VIA C7; and some other processors.
p1065
ss(Vrelations
p1066
g293
tp1067
(dp1068
Vheaders%gcc-4.9
p1069
Vlinux-compiler-gcc-4.9-arm
p1070
ss(Vdescription
p1071
g24
NVsh7751r
p1072
tp1073
(dp1074
Vhardware
p1075
Vsh7751r
p1076
sVhardware-long
p1077
VRenesas SH7751R R2D plus board
p1078
ss(Vbase
p1079
Vor1k
p1080
tp1081
(dp1082
Vkernel-arch
p1083
Vopenrisc
p1084
sVfeaturesets
p1085
(lp1086
ss(g4
g128
g6
tp1087
(dp1088
g9
I01
sg10
(lp1089
Vpowerpcspe
p1090
ass(Vimage
p1091
g91
tp1092
(dp1093
Vinstall-stem
p1094
Vvmlinuz
p1095
sVbootloaders
p1096
(lp1097
Vgrub-pc
p1098
aVextlinux
p1099
asVbreaks
p1100
Vxserver-xorg-input-vmmouse (<< 1:13.0.99)
p1101
sVconfigs
p1102
(lp1103
ss(Vdescription
p1104
g55
NV4kc-malta
p1105
tp1106
(dp1107
Vhardware
p1108
VMIPS Malta
p1109
sVhardware-long
p1110
VMIPS Malta boards
p1111
ss(Vdescription
p1112
g107
NVpowerpc-smp
p1113
tp1114
(dp1115
Vhardware
p1116
Vmultiprocessor 32-bit PowerPC
p1117
ss(Vdescription
p1118
g212
NVocteon
p1119
tp1120
(dp1121
Vhardware
p1122
VOcteon
p1123
sVhardware-long
p1124
VCavium Networks Octeon
p1125
ss(Vimage
p1126
g55
NVloongson-2f
p1127
tp1128
(dp1129
Vconfigs
p1130
(lp1131
Vkernelarch-mips/config.loongson-2f
p1132
asVrecommends
p1133
Vlibc6-loongson2f
p1134
ss(Vbase
p1135
g135
tp1136
(dp1137
Vkernel-arch
p1138
Vmips
p1139
sg29
(lp1140
g6
ass(Vbase
p1141
g91
Vrt
p1142
tp1143
(dp1144
Vflavours
p1145
(lp1146
V686-pae
p1147
ass(Vdescription
p1148
g15
NValpha-generic
p1149
tp1150
(dp1151
Vhardware
p1152
VAlpha
p1153
sVhardware-long
p1154
VDEC Alpha systems with extended kernel start address (Wildfire, Titan, Marvel)
p1155
ss(Vdescription
p1156
g128
tp1157
(dp1158
Vhardware
p1159
V32-bit PowerPC with SPE (instead of AltiVec) with SMP support
p1160
ss(Vbase
p1161
Vsparc
p1162
tp1163
(dp1164
Vkernel-arch
p1165
Vsparc
p1166
sVfeaturesets
p1167
(lp1168
ss(Vimage
p1169
g55
NVloongson-2e
p1170
tp1171
(dp1172
Vconfigs
p1173
(lp1174
Vkernelarch-mips/config.loongson-2e
p1175
ass(Vbuild
p1176
g107
tp1177
(dp1178
Vimage-file
p1179
Vvmlinux
p1180
sVvdso
p1181
I01
ss(Vimage
p1182
g135
tp1183
(dp1184
Vinstall-stem
p1185
Vvmlinux
p1186
ss(Vimage
p1187
g293
NVarmmp-lpae
p1188
tp1189
(dp1190
Vconfigs
p1191
(lp1192
Varmhf/config.armmp
p1193
aVarmhf/config.lpae
p1194
ass(g4
g183
g6
tp1195
(dp1196
g9
I01
sg10
(lp1197
Vpowerpc64
p1198
ass(Vabi
p1199
Ng320
tp1200
(dp1201
Vignore-changes
p1202
(lp1203
V*
p1204
ass(Vbase
p1205
g431
tp1206
(dp1207
Vkernel-arch
p1208
Varm64
p1209
sVfeaturesets
p1210
(lp1211
Vnone
p1212
ass(Vimage
p1213
g55
tp1214
(dp1215
Vinstall-stem
p1216
Vvmlinux
p1217
sstp1218
Rp1219
.