ccopy_reg
_reconstructor
p0
(cdebian_linux.config
ConfigCore
p1
c__builtin__
dict
p2
(dp3
(Vimage
p4
Vmips64el
p5
NVocteon
p6
tp7
(dp8
Vconfigs
p9
(lp10
Vkernelarch-mips/config.octeon
p11
ass(Vimage
p12
Vppc64el
p13
tp14
(dp15
Vconfigs
p16
(lp17
sVsuggests
p18
Vmkvmlinuz
p19
sVinstall-stem
p20
Vvmlinux
p21
ss(Vbuild
p22
Vamd64
p23
tp24
(dp25
Vvdso
p26
I01
sVdebug-info
p27
I01
sVimage-file
p28
Varch/x86/boot/bzImage
p29
ss(Vdescription
p30
Vm68k
p31
NVm68k
p32
tp33
(dp34
Vhardware
p35
VMotorola MC68020+ family
p36
ss(Vrelations
p37
Vhppa
p38
tp39
(dp40
Vgcc-4.9
p41
Vgcc-4.9 <!stage1>, binutils-hppa64 <!stage1>, gcc-4.9-hppa64 <!stage1>
p42
ss(Vbuild
p43
Varm64
p44
tp45
(dp46
Vvdso
p47
I01
sVdebug-info
p48
I01
sVimage-file
p49
Varch/arm64/boot/Image
p50
ss(Vbase
p51
Varmhf
p52
tp53
(dp54
Vfeaturesets
p55
(lp56
Vnone
p57
asVkernel-arch
p58
Varm
p59
ss(Vimage
p60
g5
NV5kc-malta
p61
tp62
(dp63
Vconfigs
p64
(lp65
Vkernelarch-mips/config.5kc-malta
p66
ass(Vbase
p67
g44
Vnone
p68
tp69
(dp70
Vflavours
p71
(lp72
Varm64
p73
ass(Vbase
p74
Vsh4
p75
g57
tp76
(dp77
Vflavours
p78
(lp79
Vsh7751r
p80
aVsh7785lcr
p81
asVimplicit-flavour
p82
I01
ss(Vbase
p83
tp84
(dp85
Vcompiler
p86
Vgcc-4.9
p87
sVfeaturesets
p88
(lp89
Vnone
p90
asVarches
p91
(lp92
Valpha
p93
aVamd64
p94
aVarm64
p95
aVarmel
p96
aVarmhf
p97
aVhppa
p98
aVi386
p99
aVm68k
p100
aVmips
p101
aVmipsel
p102
aVmips64
p103
aVmips64el
p104
aVor1k
p105
aVpowerpc
p106
aVpowerpcspe
p107
aVppc64
p108
aVppc64el
p109
aVs390
p110
aVs390x
p111
aVsh4
p112
aVsparc
p113
aVsparc64
p114
aVx32
p115
ass(Vdescription
p116
g52
NVarmmp-lpae
p117
tp118
(dp119
Vhardware
p120
VARMv7 multiplatform compatible SoCs supporting LPAE
p121
sVhardware-long
p122
VARMv7 multiplatform kernel supporting LPAE. See\u000ahttps://wiki.debian.org/DebianKernel/ARMMP for details of supported\u000aplatforms.
p123
ss(g74
g5
g57
tp124
(dp125
g78
(lp126
V5kc-malta
p127
aVloongson-3
p128
aVocteon
p129
asg82
I01
ss(g74
Vmipsel
p130
g57
tp131
(dp132
g78
(lp133
V4kc-malta
p134
aV5kc-malta
p135
aVloongson-2e
p136
aVloongson-2f
p137
aVloongson-3
p138
asg82
I01
ss(g74
g31
g57
tp139
(dp140
g78
(lp141
Vm68k
p142
asg82
I01
ss(Vimage
p143
Vmips
p144
NV5kc-malta
p145
tp146
(dp147
Vconfigs
p148
(lp149
Vkernelarch-mips/config.5kc-malta
p150
ass(Vrelations
p151
Varmel
p152
tp153
(dp154
Vheaders%gcc-4.9
p155
Vlinux-compiler-gcc-4.9-arm
p156
ss(Vdescription
p157
g75
NVsh7785lcr
p158
tp159
(dp160
Vhardware
p161
Vsh7785lcr
p162
sVhardware-long
p163
VRenesas SH7785 reference board
p164
ss(Vxen
p165
g23
Vnone
p166
Vamd64
p167
tp168
(dp169
Vflavours
p170
(lp171
Vamd64
p172
ass(Vbase
p173
Vsparc
p174
tp175
(dp176
Vfeaturesets
p177
(lp178
sVkernel-arch
p179
Vsparc
p180
ss(Vbuild
p181
g52
tp182
(dp183
Vvdso
p184
I01
sVimage-file
p185
Varch/arm/boot/zImage
p186
ss(Vdescription
p187
g23
g166
Vamd64
p188
tp189
(dp190
Vparts
p191
(lp192
Vxen
p193
ass(Vimage
p194
g5
tp195
(dp196
Vinstall-stem
p197
Vvmlinux
p198
ss(Vdescription
p199
g144
NV5kc-malta
p200
tp201
(dp202
Vhardware
p203
VMIPS Malta (64-bit)
p204
sVhardware-long
p205
VMIPS Malta boards (64-bit)
p206
ss(Vbase
p207
g44
tp208
(dp209
Vfeaturesets
p210
(lp211
Vnone
p212
asVkernel-arch
p213
Varm64
p214
ss(Vimage
p215
Vppc64
p216
NVpowerpc64
p217
tp218
(dp219
Vconfigs
p220
(lp221
Vkernelarch-powerpc/config-arch-64
p222
aVkernelarch-powerpc/config-arch-64-be
p223
ass(Vimage
p224
Vsparc64
p225
NVsparc64-smp
p226
tp227
(dp228
Vconfigs
p229
(lp230
Vkernelarch-sparc/config-smp
p231
ass(Vdescription
p232
g144
NVocteon
p233
tp234
(dp235
Vhardware
p236
VOcteon
p237
sVhardware-long
p238
VCavium Networks Octeon
p239
ss(Vbase
p240
NVrt
p241
tp242
(dp243
Venabled
p244
I00
ss(Vrelations
p245
tp246
(dp247
Vgcc-4.8
p248
Vgcc-4.8
p249
sVinitramfs-tools
p250
Vinitramfs-tools (>= 0.110~)
p251
sVgcc-5
p252
Vgcc-5
p253
sVinitramfs-fallback
p254
Vlinux-initramfs-tool
p255
sVgcc-4.9
p256
Vgcc-4.9
p257
ss(Vdescription
p258
Valpha
p259
NValpha-generic
p260
tp261
(dp262
Vhardware
p263
VAlpha
p264
sVhardware-long
p265
VDEC Alpha systems with extended kernel start address (Wildfire, Titan, Marvel)
p266
ss(Vdescription
p267
Vi386
p268
Vnone
p269
V686-pae
p270
tp271
(dp272
Vparts
p273
(lp274
Vxen
p275
ass(Vdescription
p276
g38
NVparisc64-smp
p277
tp278
(dp279
Vhardware
p280
Vmultiprocessor 64-bit PA-RISC
p281
sVhardware-long
p282
VHP PA-RISC 64-bit SMP systems with support for more than 4 GB RAM
p283
ss(Vimage
p284
g268
tp285
(dp286
Vconfigs
p287
(lp288
sVbreaks
p289
Vxserver-xorg-input-vmmouse (<< 1:13.0.99)
p290
sVinstall-stem
p291
Vvmlinuz
p292
sVbootloaders
p293
(lp294
Vgrub-pc
p295
aVextlinux
p296
ass(g74
g259
g57
tp297
(dp298
g78
(lp299
Valpha-generic
p300
aValpha-smp
p301
asg82
I01
ss(Vimage
p302
g38
tp303
(dp304
Vsuggests
p305
Vpalo
p306
sVinstall-stem
p307
Vvmlinux
p308
ss(Vimage
p309
g130
NVloongson-2e
p310
tp311
(dp312
Vconfigs
p313
(lp314
Vkernelarch-mips/config.loongson-2e
p315
ass(Vbase
p316
Vor1k
p317
tp318
(dp319
Vfeaturesets
p320
(lp321
sVkernel-arch
p322
Vopenrisc
p323
ss(Vbuild
p324
g152
tp325
(dp326
Vimage-file
p327
Varch/arm/boot/zImage
p328
ss(Vimage
p329
g130
NVloongson-2f
p330
tp331
(dp332
Vconfigs
p333
(lp334
Vkernelarch-mips/config.loongson-2f
p335
asVrecommends
p336
Vlibc6-loongson2f
p337
ss(Vimage
p338
Vmips64
p339
NV5kc-malta
p340
tp341
(dp342
Vconfigs
p343
(lp344
Vkernelarch-mips/config.5kc-malta
p345
ass(Vdescription
p346
g130
NV5kc-malta
p347
tp348
(dp349
Vhardware
p350
VMIPS Malta (64-bit)
p351
sVhardware-long
p352
VMIPS Malta boards (64-bit)
p353
ss(Vbase
p354
g75
tp355
(dp356
g55
(lp357
g57
asVkernel-arch
p358
Vsh
p359
ss(Vbase
p360
g216
tp361
(dp362
g55
(lp363
g57
asVkernel-arch
p364
Vpowerpc
p365
ss(Vbase
p366
g38
tp367
(dp368
g55
(lp369
g57
asVkernel-arch
p370
Vparisc
p371
ss(Vimage
p372
g216
tp373
(dp374
Vconfigs
p375
(lp376
sVsuggests
p377
Vmkvmlinuz
p378
sVinstall-stem
p379
Vvmlinux
p380
ss(Vbase
p381
Vpowerpc
p382
tp383
(dp384
g55
(lp385
g57
asVkernel-arch
p386
Vpowerpc
p387
ss(Vimage
p388
Vs390x
p389
NVs390x
p390
tp391
(dp392
Vconfigs
p393
(lp394
Vkernelarch-s390/config-arch-64
p395
ass(g74
g216
g57
tp396
(dp397
g78
(lp398
Vpowerpc64
p399
asg82
I01
ss(Vbuild
p400
g268
NV686-pae
p401
tp402
(dp403
Vdebug-info
p404
I01
ss(Vbuild
p405
g130
tp406
(dp407
Vimage-file
p408
Vvmlinux
p409
ss(Vdescription
p410
g268
tp411
(dp412
Vpart-long-pae
p413
VThis kernel requires PAE (Physical Address Extension).\u000aThis feature is supported by the Intel Pentium Pro/II/III/4/4M/D, Xeon,\u000aCore and Atom; AMD Geode NX, Athlon (K7), Duron, Opteron, Sempron,\u000aTurion or Phenom; Transmeta Efficeon; VIA C7; and some other processors.
p414
ss(Vbase
p415
g144
tp416
(dp417
g55
(lp418
g57
asVkernel-arch
p419
Vmips
p420
ss(Vimage
p421
g144
NV4kc-malta
p422
tp423
(dp424
Vconfigs
p425
(lp426
Vkernelarch-mips/config.4kc-malta
p427
ass(Vdescription
p428
g5
NVocteon
p429
tp430
(dp431
Vhardware
p432
VOcteon
p433
sVhardware-long
p434
VCavium Networks Octeon
p435
ss(Vbuild
p436
g38
tp437
(dp438
Vimage-file
p439
Vvmlinux
p440
ss(Vimage
p441
g130
NV4kc-malta
p442
tp443
(dp444
Vconfigs
p445
(lp446
Vkernelarch-mips/config.4kc-malta
p447
ass(Vdescription
p448
g389
NVs390x
p449
tp450
(dp451
Vhardware
p452
VIBM zSeries
p453
ss(Vimage
p454
g75
NVsh7785lcr
p455
tp456
(dp457
Vcheck-size
p458
L4194304L
sVrecommends
p459
Vu-boot-tools
p460
ss(Vbase
p461
g259
tp462
(dp463
g55
(lp464
g57
asVkernel-arch
p465
Valpha
p466
ss(Vdescription
p467
g130
NVloongson-3
p468
tp469
(dp470
Vhardware
p471
VLoongson 3A/3B
p472
sVhardware-long
p473
VLoongson 3A or 3B based systems (e.g. from Loongson or Lemote)
p474
ss(Vbase
p475
g13
tp476
(dp477
g55
(lp478
g57
asVkernel-arch
p479
Vpowerpc
p480
ss(Vbase
p481
g130
tp482
(dp483
g55
(lp484
g57
asVkernel-arch
p485
Vmips
p486
ss(Vimage
p487
g130
tp488
(dp489
Vinstall-stem
p490
Vvmlinux
p491
ss(Vdescription
p492
g5
NV5kc-malta
p493
tp494
(dp495
Vhardware
p496
VMIPS Malta
p497
sVhardware-long
p498
VMIPS Malta boards
p499
ss(Vbuild
p500
g5
tp501
(dp502
Vimage-file
p503
Vvmlinux
p504
ss(Vimage
p505
g130
NVloongson-3
p506
tp507
(dp508
Vconfigs
p509
(lp510
Vkernelarch-mips/config.loongson-3
p511
ass(Vimage
p512
g52
tp513
(dp514
Vconfigs
p515
(lp516
Vkernelarch-arm/config
p517
asVsuggests
p518
Vfdutils
p519
sVinstall-stem
p520
Vvmlinuz
p521
ss(Vdescription
p522
Vpowerpcspe
p523
tp524
(dp525
Vhardware
p526
V32-bit PowerPC with SPE (instead of AltiVec) with SMP support
p527
ss(Vbuild
p528
g216
tp529
(dp530
Vvdso
p531
I01
sVimage-file
p532
Vvmlinux
p533
ss(Vdescription
p534
g130
NVloongson-2e
p535
tp536
(dp537
Vhardware
p538
VLoongson 2E
p539
sVhardware-long
p540
VLemote Loongson 2E systems
p541
ss(Vrelations
p542
g23
tp543
(dp544
Vheaders%gcc-5
p545
Vlinux-compiler-gcc-5-x86
p546
ss(Vdescription
p547
g268
NV686
p548
tp549
(dp550
Vhardware
p551
Volder PCs
p552
sVhardware-long
p553
VPCs with one or more processors not supporting PAE
p554
ss(Vimage
p555
g339
NVocteon
p556
tp557
(dp558
Vconfigs
p559
(lp560
Vkernelarch-mips/config.octeon
p561
ass(Vdescription
p562
g13
NVpowerpc64le
p563
tp564
(dp565
Vhardware
p566
VLittle-endian 64-bit PowerPC
p567
ss(Vimage
p568
g13
NVpowerpc64le
p569
tp570
(dp571
Vconfigs
p572
(lp573
Vkernelarch-powerpc/config-arch-64
p574
aVkernelarch-powerpc/config-arch-64-le
p575
ass(Vdescription
p576
g382
NVpowerpc64
p577
tp578
(dp579
Vhardware
p580
V64-bit PowerPC
p581
ss(Vdescription
p582
g225
NVsparc64
p583
tp584
(dp585
Vhardware
p586
Vuniprocessor 64-bit UltraSPARC
p587
ss(g74
g144
g57
tp588
(dp589
g78
(lp590
V4kc-malta
p591
aV5kc-malta
p592
aVocteon
p593
asg82
I01
ss(Vimage
p594
g152
tp595
(dp596
Vconfigs
p597
(lp598
Vkernelarch-arm/config
p599
aVarmel/config
p600
asVsuggests
p601
Vfdutils
p602
sVinstall-stem
p603
Vvmlinuz
p604
ss(Vdescription
p605
g382
NVpowerpc
p606
tp607
(dp608
Vhardware
p609
Vuniprocessor 32-bit PowerPC
p610
ss(Vdescription
p611
g52
NVarmmp
p612
tp613
(dp614
Vhardware
p615
VARMv7 multiplatform compatible SoCs
p616
sVhardware-long
p617
VARMv7 multiplatform kernel. See\u000ahttps://wiki.debian.org/DebianKernel/ARMMP for details of supported\u000aplatforms
p618
ss(Vdescription
p619
g44
NVarm64
p620
tp621
(dp622
Vhardware
p623
V64-bit ARMv8 machines
p624
ss(Vimage
p625
g382
NVpowerpc64
p626
tp627
(dp628
Vconfigs
p629
(lp630
Vkernelarch-powerpc/config-arch-64
p631
aVkernelarch-powerpc/config-arch-64-be
p632
ass(Vimage
p633
tp634
(dp635
Vinitramfs-generators
p636
(lp637
Vinitramfs-tools
p638
aVinitramfs-fallback
p639
ass(Vbuild
p640
g268
tp641
(dp642
Vvdso
p643
I01
sVimage-file
p644
Varch/x86/boot/bzImage
p645
ss(Vdescription
p646
g152
NVmarvell
p647
tp648
(dp649
Vhardware
p650
VMarvell Kirkwood/Orion
p651
sVhardware-long
p652
VMarvell Kirkwood based systems (SheevaPlug, QNAP TS-119/TS-219, etc)\u000aand Orion 5181, 5182 and 5281 based systems (QNAP TS-109/TS-209, etc)
p653
ss(Vbase
p654
g225
tp655
(dp656
g55
(lp657
g57
asVkernel-arch
p658
Vsparc
p659
ss(Vdescription
p660
g382
NVpowerpc-smp
p661
tp662
(dp663
Vhardware
p664
Vmultiprocessor 32-bit PowerPC
p665
ss(Vdescription
p666
g339
NVocteon
p667
tp668
(dp669
Vhardware
p670
VOcteon
p671
sVhardware-long
p672
VCavium Networks Octeon
p673
ss(Vimage
p674
g268
NV686
p675
tp676
(dp677
Vconfigs
p678
(lp679
Vkernelarch-x86/config-arch-32
p680
aVi386/config.686
p681
asVrecommends
p682
Vlibc6-i686
p683
ss(Vdescription
p684
g268
NV686-pae
p685
tp686
(dp687
Vhardware
p688
Vmodern PCs
p689
sVhardware-long
p690
VPCs with one or more processors supporting PAE
p691
sVparts
p692
(lp693
Vpae
p694
ass(Vbuild
p695
g225
tp696
(dp697
Vimage-file
p698
Varch/sparc/boot/zImage
p699
ss(Vdescription
p700
g225
NVsparc64-smp
p701
tp702
(dp703
Vhardware
p704
Vmultiprocessor 64-bit UltraSPARC
p705
ss(Vbuild
p706
g339
tp707
(dp708
Vimage-file
p709
Vvmlinux
p710
ss(Vimage
p711
g75
tp712
(dp713
Vsuggests
p714
Vfdutils
p715
sVinstall-stem
p716
Vvmlinuz
p717
ss(Vbase
p718
g268
tp719
(dp720
Vcompiler
p721
Vgcc-4.9
p722
sVfeaturesets
p723
(lp724
Vnone
p725
asVkernel-arch
p726
Vx86
p727
ss(Vdescription
p728
g23
NVamd64
p729
tp730
(dp731
Vhardware
p732
V64-bit PCs
p733
sVhardware-long
p734
VPCs with AMD64, Intel 64 or VIA Nano processors
p735
ss(Vbase
p736
g268
g269
tp737
(dp738
Vflavours
p739
(lp740
V686
p741
aV686-pae
p742
ass(Vbase
p743
g523
tp744
(dp745
g55
(lp746
g57
asVkernel-arch
p747
Vpowerpc
p748
ss(Vbase
p749
g5
tp750
(dp751
g55
(lp752
g57
asVkernel-arch
p753
Vmips
p754
ss(g74
g52
g57
tp755
(dp756
g78
(lp757
Varmmp
p758
aVarmmp-lpae
p759
asg82
I01
ss(Vimage
p760
g52
NVarmmp-lpae
p761
tp762
(dp763
Vconfigs
p764
(lp765
Varmhf/config.armmp
p766
aVarmhf/config.lpae
p767
ass(Vbuild
p768
g144
tp769
(dp770
Vimage-file
p771
Vvmlinux
p772
ss(Vimage
p773
g5
NVloongson-3
p774
tp775
(dp776
Vconfigs
p777
(lp778
Vkernelarch-mips/config.loongson-3
p779
ass(Vbase
p780
g23
g166
tp781
(dp782
Vflavours
p783
(lp784
Vamd64
p785
ass(Vrelations
p786
g389
tp787
(dp788
Vheaders%gcc-4.9
p789
Vlinux-compiler-gcc-4.9-s390
p790
ss(Vbase
p791
Vs390
p792
tp793
(dp794
Vfeaturesets
p795
(lp796
sVkernel-arch
p797
Vs390
p798
ss(Vbase
p799
Vx32
p800
tp801
(dp802
Vfeaturesets
p803
(lp804
sVkernel-arch
p805
Vx86
p806
ss(Vimage
p807
g152
NVmarvell
p808
tp809
(dp810
Vcheck-size
p811
L2097080L
sVrecommends
p812
Vu-boot-tools
p813
sVbreaks
p814
Vflash-kernel (<< 3.57~)
p815
sVcheck-size-with-dtb
p816
I01
ss(Vimage
p817
g382
tp818
(dp819
Vconfigs
p820
(lp821
sVsuggests
p822
Vmkvmlinuz
p823
sVinstall-stem
p824
Vvmlinux
p825
ss(g74
g152
g57
tp826
(dp827
g78
(lp828
Vmarvell
p829
aVversatile
p830
asg82
I01
ss(Vimage
p831
g44
tp832
(dp833
Vinstall-stem
p834
Vvmlinuz
p835
ss(Vdescription
p836
g38
NVparisc
p837
tp838
(dp839
Vhardware
p840
V32-bit PA-RISC
p841
sVhardware-long
p842
VHP PA-RISC 32-bit systems with max 4 GB RAM
p843
ss(Vbase
p844
g23
tp845
(dp846
Vcompiler
p847
Vgcc-4.9
p848
sVfeaturesets
p849
(lp850
Vnone
p851
asVkernel-arch
p852
Vx86
p853
ss(Vdescription
p854
g339
NV5kc-malta
p855
tp856
(dp857
Vhardware
p858
VMIPS Malta
p859
sVhardware-long
p860
VMIPS Malta boards
p861
ss(Vbuild
p862
g389
NVs390x
p863
tp864
(dp865
Vdebug-info
p866
I01
ss(Vimage
p867
g23
tp868
(dp869
Vconfigs
p870
(lp871
sVbreaks
p872
Vxserver-xorg-input-vmmouse (<< 1:13.0.99)
p873
sVinstall-stem
p874
Vvmlinuz
p875
sVbootloaders
p876
(lp877
Vgrub-pc
p878
aVgrub-efi
p879
aVextlinux
p880
ass(Vbuild
p881
g13
tp882
(dp883
Vvdso
p884
I01
sVimage-file
p885
Vvmlinux
p886
ss(Vimage
p887
g259
tp888
(dp889
Vsuggests
p890
Vaboot, fdutils
p891
sVinstall-stem
p892
Vvmlinuz
p893
ss(Vabi
p894
tp895
(dp896
Vabiname
p897
V2
p898
ss(g74
g225
g57
tp899
(dp900
g78
(lp901
Vsparc64
p902
aVsparc64-smp
p903
asg82
I01
ss(Vimage
p904
g389
tp905
(dp906
Vconfigs
p907
(lp908
sVinstall-stem
p909
Vvmlinuz
p910
sVbootloaders
p911
(lp912
Vs390-tools
p913
ass(Vimage
p914
g144
NVocteon
p915
tp916
(dp917
Vconfigs
p918
(lp919
Vkernelarch-mips/config.octeon
p920
ass(Vimage
p921
g44
NVarm64
p922
tp923
(dp924
s(Vbuild
p925
g389
tp926
(dp927
Vvdso
p928
I01
sVimage-file
p929
Varch/s390/boot/image
p930
ss(Vbase
p931
g389
tp932
(dp933
g55
(lp934
g57
asVkernel-arch
p935
Vs390
p936
ss(g74
g13
g57
tp937
(dp938
g78
(lp939
Vpowerpc64le
p940
asg82
I01
ss(Vimage
p941
g23
NVamd64
p942
tp943
(dp944
Vconfigs
p945
(lp946
Vkernelarch-x86/config-arch-64
p947
ass(Vbuild
p948
g31
tp949
(dp950
Vimage-file
p951
Vvmlinux.gz
p952
ss(Vbuild
p953
g259
tp954
(dp955
Vimage-file
p956
Varch/alpha/boot/vmlinux.gz
p957
ss(Vrelations
p958
g268
tp959
(dp960
Vheaders%gcc-5
p961
Vlinux-compiler-gcc-5-x86
p962
ss(g74
g38
g57
tp963
(dp964
g78
(lp965
Vparisc
p966
aVparisc64-smp
p967
asg82
I01
ss(Vimage
p968
g523
tp969
(dp970
Vsuggests
p971
Vmkvmlinuz
p972
sVinstall-stem
p973
Vvmlinux
p974
ss(Vdescription
p975
g259
NValpha-smp
p976
tp977
(dp978
Vhardware
p979
VAlpha SMP
p980
sVhardware-long
p981
VDEC Alpha SMP systems with extended kernel start address (Wildfire, Titan, Marvel)
p982
ss(g74
g523
g57
tp983
(dp984
g78
(lp985
Vpowerpcspe
p986
asg82
I01
ss(Vbuild
p987
g382
tp988
(dp989
Vvdso
p990
I01
sVimage-file
p991
Vvmlinux
p992
ss(Vrelations
p993
g52
tp994
(dp995
Vheaders%gcc-4.9
p996
Vlinux-compiler-gcc-4.9-arm
p997
ss(Vimage
p998
g130
NV5kc-malta
p999
tp1000
(dp1001
Vconfigs
p1002
(lp1003
Vkernelarch-mips/config.5kc-malta
p1004
ass(Vdescription
p1005
g144
NV4kc-malta
p1006
tp1007
(dp1008
Vhardware
p1009
VMIPS Malta
p1010
sVhardware-long
p1011
VMIPS Malta boards
p1012
ss(Vimage
p1013
g144
tp1014
(dp1015
Vinstall-stem
p1016
Vvmlinux
p1017
ss(Vdescription
p1018
g130
NV4kc-malta
p1019
tp1020
(dp1021
Vhardware
p1022
VMIPS Malta
p1023
sVhardware-long
p1024
VMIPS Malta boards
p1025
ss(Vdescription
p1026
g5
NVloongson-3
p1027
tp1028
(dp1029
Vhardware
p1030
VLoongson 3A/3B
p1031
sVhardware-long
p1032
VLoongson 3A or 3B based systems (e.g. from Loongson or Lemote)
p1033
ss(Vdescription
p1034
g216
NVpowerpc64
p1035
tp1036
(dp1037
Vhardware
p1038
V64-bit PowerPC
p1039
ss(Vdescription
p1040
g130
NVloongson-2f
p1041
tp1042
(dp1043
Vhardware
p1044
VLoongson 2F
p1045
sVhardware-long
p1046
VLemote Loongson 2F systems
p1047
ss(Vimage
p1048
g31
tp1049
(dp1050
Vsuggests
p1051
Vvmelilo, fdutils
p1052
sVinstall-stem
p1053
Vvmlinuz
p1054
ss(Vdescription
p1055
tp1056
(dp1057
Vpart-long-up
p1058
VThis kernel is not suitable for SMP (multi-processor,\u000amulti-core or hyper-threaded) systems.
p1059
sVpart-long-xen
p1060
VThis kernel also runs on a Xen hypervisor.\u000aIt supports both privileged (dom0) and unprivileged (domU) operation.
p1061
ss(Vimage
p1062
g268
NV686-pae
p1063
tp1064
(dp1065
Vconfigs
p1066
(lp1067
Vkernelarch-x86/config-arch-32
p1068
aVi386/config.686-pae
p1069
asVrecommends
p1070
Vlibc6-i686
p1071
ss(Vimage
p1072
g382
NVpowerpc-smp
p1073
tp1074
(dp1075
Vconfigs
p1076
(lp1077
Vpowerpc/config.powerpc
p1078
aVpowerpc/config.powerpc-smp
p1079
ass(Vbase
p1080
g152
tp1081
(dp1082
g55
(lp1083
g57
asVkernel-arch
p1084
Varm
p1085
ss(Vbuild
p1086
g523
tp1087
(dp1088
Vvdso
p1089
I01
sVimage-file
p1090
Vvmlinux
p1091
ss(g74
g382
g57
tp1092
(dp1093
g78
(lp1094
Vpowerpc
p1095
aVpowerpc-smp
p1096
aVpowerpc64
p1097
asg82
I01
ss(Vbuild
p1098
g75
tp1099
(dp1100
Vimage-file
p1101
Varch/sh/boot/zImage
p1102
ss(Vimage
p1103
g339
tp1104
(dp1105
Vinstall-stem
p1106
Vvmlinux
p1107
ss(Vdescription
p1108
g75
NVsh7751r
p1109
tp1110
(dp1111
Vhardware
p1112
Vsh7751r
p1113
sVhardware-long
p1114
VRenesas SH7751R R2D plus board
p1115
ss(Vbase
p1116
g339
tp1117
(dp1118
g55
(lp1119
g57
asVkernel-arch
p1120
Vmips
p1121
ss(Vbase
p1122
g31
tp1123
(dp1124
Vcompiler
p1125
Vgcc-4.8
p1126
sg55
(lp1127
g57
asVcflags
p1128
V-ffreestanding
p1129
sVkernel-arch
p1130
Vm68k
p1131
ss(Vdescription
p1132
g152
NVversatile
p1133
tp1134
(dp1135
Vhardware
p1136
VVersatile
p1137
sVhardware-long
p1138
VVersatile systems (PB, AB, Qemu)
p1139
ss(Vimage
p1140
g225
tp1141
(dp1142
Vconfigs
p1143
(lp1144
sVsuggests
p1145
Vsilo, fdutils
p1146
sVinstall-stem
p1147
Vvmlinuz
p1148
ss(Vbase
p1149
g38
NVparisc64-smp
p1150
tp1151
(dp1152
Voverride-host-type
p1153
Vhppa64-linux-gnu
p1154
sVcflags
p1155
V-fno-cse-follow-jumps
p1156
ss(g74
g389
g57
tp1157
(dp1158
g78
(lp1159
Vs390x
p1160
asg82
I01
ss(Vversion
p1161
tp1162
(dp1163
Vabiname
p1164
V4.4.0-2
p1165
sVabiname_base
p1166
V4.4.0
p1167
sVsource
p1168
V4.4.2-3+wmf4
p1169
sVupstream
p1170
V4.4
p1171
ss(g74
g339
g57
tp1172
(dp1173
g78
(lp1174
V5kc-malta
p1175
aVocteon
p1176
asg82
I01
ss(Vimage
p1177
g225
NVsparc64
p1178
tp1179
(dp1180
Vconfigs
p1181
(lp1182
Vkernelarch-sparc/config-up
p1183
asstp1184
Rp1185
.