ccopy_reg
_reconstructor
p0
(cdebian_linux.config
ConfigCore
p1
c__builtin__
dict
p2
(dp3
(Vbuild
p4
Vi386
p5
tp6
(dp7
Vimage-file
p8
Varch/x86/boot/bzImage
p9
sVvdso
p10
I01
ss(Vdescription
p11
Vm68k
p12
NVm68k
p13
tp14
(dp15
Vhardware
p16
VMotorola MC68020+ family
p17
ss(Vimage
p18
Vmips
p19
tp20
(dp21
Vinstall-stem
p22
Vvmlinux
p23
ss(Vbase
p24
Vmipsel
p25
tp26
(dp27
Vfeaturesets
p28
(lp29
Vnone
p30
asVkernel-arch
p31
Vmips
p32
ss(Vdescription
p33
Vpowerpc
p34
NVpowerpc
p35
tp36
(dp37
Vhardware
p38
Vuniprocessor 32-bit PowerPC
p39
ss(Vbase
p40
Vppc64el
p41
tp42
(dp43
g28
(lp44
g30
asVkernel-arch
p45
Vpowerpc
p46
ss(Vimage
p47
Vs390x
p48
tp49
(dp50
Vconfigs
p51
(lp52
sVbootloaders
p53
(lp54
Vs390-tools
p55
asVinstall-stem
p56
Vvmlinuz
p57
ss(Vdescription
p58
g5
NV686
p59
tp60
(dp61
Vhardware
p62
Volder PCs
p63
sVhardware-long
p64
VPCs with one or more processors not supporting PAE
p65
ss(Vimage
p66
Vsh4
p67
NVsh7785lcr
p68
tp69
(dp70
Vrecommends
p71
Vu-boot-tools
p72
sVcheck-size
p73
L4194304L
ss(Vbuild
p74
g12
tp75
(dp76
Vimage-file
p77
Vvmlinux.gz
p78
ss(Vbuild
p79
Vmips64
p80
tp81
(dp82
Vimage-file
p83
Vvmlinux
p84
ss(Vimage
p85
g5
NV686
p86
tp87
(dp88
Vconfigs
p89
(lp90
Vkernelarch-x86/config-arch-32
p91
aVi386/config.686
p92
asVrecommends
p93
Vlibc6-i686
p94
ss(Vdescription
p95
Vsparc64
p96
NVsparc64-smp
p97
tp98
(dp99
Vhardware
p100
Vmultiprocessor 64-bit UltraSPARC
p101
ss(Vabi
p102
tp103
(dp104
Vabiname
p105
V1
p106
ss(Vimage
p107
g41
tp108
(dp109
Vsuggests
p110
Vmkvmlinuz
p111
sVconfigs
p112
(lp113
sVinstall-stem
p114
Vvmlinux
p115
ss(Vbase
p116
Vamd64
p117
tp118
(dp119
Vfeaturesets
p120
(lp121
Vnone
p122
asVkernel-arch
p123
Vx86
p124
sVcompiler
p125
Vgcc-4.9
p126
ss(Vbase
p127
g48
tp128
(dp129
g28
(lp130
g30
asVkernel-arch
p131
Vs390
p132
ss(Vbase
p133
Vhppa
p134
tp135
(dp136
g28
(lp137
g30
asVkernel-arch
p138
Vparisc
p139
ss(Vimage
p140
g117
tp141
(dp142
Vconfigs
p143
(lp144
sVbreaks
p145
Vxserver-xorg-input-vmmouse (<< 1:13.0.99)
p146
sVbootloaders
p147
(lp148
Vgrub-pc
p149
aVgrub-efi
p150
aVextlinux
p151
asVinstall-stem
p152
Vvmlinuz
p153
ss(Vimage
p154
g25
NV4kc-malta
p155
tp156
(dp157
Vconfigs
p158
(lp159
Vkernelarch-mips/config.4kc-malta
p160
ass(Vdescription
p161
g19
NV4kc-malta
p162
tp163
(dp164
Vhardware
p165
VMIPS Malta
p166
sVhardware-long
p167
VMIPS Malta boards
p168
ss(Vbase
p169
Varm64
p170
tp171
(dp172
Vfeaturesets
p173
(lp174
Vnone
p175
asVkernel-arch
p176
Varm64
p177
ss(Vimage
p178
g19
NV4kc-malta
p179
tp180
(dp181
Vconfigs
p182
(lp183
Vkernelarch-mips/config.4kc-malta
p184
ass(Vimage
p185
g96
NVsparc64
p186
tp187
(dp188
Vconfigs
p189
(lp190
Vkernelarch-sparc/config-up
p191
ass(Vimage
p192
g67
tp193
(dp194
Vsuggests
p195
Vfdutils
p196
sVinstall-stem
p197
Vvmlinuz
p198
ss(Vrelations
p199
tp200
(dp201
Vgcc-4.8
p202
Vgcc-4.8
p203
sVgcc-4.9
p204
Vgcc-4.9
p205
sVgcc-5
p206
Vgcc-5
p207
sVinitramfs-fallback
p208
Vlinux-initramfs-tool
p209
sVinitramfs-tools
p210
Vinitramfs-tools (>= 0.110~)
p211
ss(Vdescription
p212
g5
tp213
(dp214
Vpart-long-pae
p215
VThis kernel requires PAE (Physical Address Extension).\u000aThis feature is supported by the Intel Pentium Pro/II/III/4/4M/D, Xeon,\u000aCore and Atom; AMD Geode NX, Athlon (K7), Duron, Opteron, Sempron,\u000aTurion or Phenom; Transmeta Efficeon; VIA C7; and some other processors.
p216
ss(Vbase
p217
g19
g30
tp218
(dp219
Vflavours
p220
(lp221
V4kc-malta
p222
aV5kc-malta
p223
aVocteon
p224
asVimplicit-flavour
p225
I01
ss(Vbuild
p226
g170
tp227
(dp228
Vdebug-info
p229
I01
sVimage-file
p230
Varch/arm64/boot/Image
p231
sVvdso
p232
I01
ss(Vdescription
p233
g25
NVloongson-2f
p234
tp235
(dp236
Vhardware
p237
VLoongson 2F
p238
sVhardware-long
p239
VLemote Loongson 2F systems
p240
ss(Vimage
p241
g80
NVocteon
p242
tp243
(dp244
Vconfigs
p245
(lp246
Vkernelarch-mips/config.octeon
p247
ass(g217
g134
g30
tp248
(dp249
g220
(lp250
Vparisc
p251
aVparisc64-smp
p252
asg225
I01
ss(Vdescription
p253
Valpha
p254
NValpha-generic
p255
tp256
(dp257
Vhardware
p258
VAlpha
p259
sVhardware-long
p260
VDEC Alpha systems with extended kernel start address (Wildfire, Titan, Marvel)
p261
ss(Vbuild
p262
g41
tp263
(dp264
Vimage-file
p265
Vvmlinux
p266
sVvdso
p267
I01
ss(Vbuild
p268
g48
tp269
(dp270
Vimage-file
p271
Varch/s390/boot/image
p272
sVvdso
p273
I01
ss(Vdescription
p274
g34
NVpowerpc64
p275
tp276
(dp277
Vhardware
p278
V64-bit PowerPC
p279
ss(Vdescription
p280
g5
Vnone
p281
V686-pae
p282
tp283
(dp284
Vparts
p285
(lp286
Vxen
p287
ass(Vimage
p288
g80
tp289
(dp290
Vinstall-stem
p291
Vvmlinux
p292
ss(Vimage
p293
Varmel
p294
NVmarvell
p295
tp296
(dp297
Vcheck-size-with-dtb
p298
I01
sVrecommends
p299
Vu-boot-tools
p300
sVbreaks
p301
Vflash-kernel (<< 3.57~)
p302
sVcheck-size
p303
L2097080L
ss(Vbuild
p304
Vppc64
p305
tp306
(dp307
Vimage-file
p308
Vvmlinux
p309
sVvdso
p310
I01
ss(Vimage
p311
g5
tp312
(dp313
Vconfigs
p314
(lp315
sVbreaks
p316
Vxserver-xorg-input-vmmouse (<< 1:13.0.99)
p317
sVbootloaders
p318
(lp319
Vgrub-pc
p320
aVextlinux
p321
asVinstall-stem
p322
Vvmlinuz
p323
ss(Vdescription
p324
Varmhf
p325
NVarmmp-lpae
p326
tp327
(dp328
Vhardware
p329
VARMv7 multiplatform compatible SoCs supporting LPAE
p330
sVhardware-long
p331
VARMv7 multiplatform kernel supporting LPAE. See\u000ahttps://wiki.debian.org/DebianKernel/ARMMP for details of supported\u000aplatforms.
p332
ss(Vdescription
p333
g117
Vnone
p334
Vamd64
p335
tp336
(dp337
Vparts
p338
(lp339
Vxen
p340
ass(Vdescription
p341
tp342
(dp343
Vpart-long-up
p344
VThis kernel is not suitable for SMP (multi-processor,\u000amulti-core or hyper-threaded) systems.
p345
sVpart-long-xen
p346
VThis kernel also runs on a Xen hypervisor.\u000aIt supports both privileged (dom0) and unprivileged (domU) operation.
p347
ss(Vimage
p348
g254
tp349
(dp350
Vsuggests
p351
Vaboot, fdutils
p352
sVinstall-stem
p353
Vvmlinuz
p354
ss(Vdescription
p355
Vmips64el
p356
NVloongson-3
p357
tp358
(dp359
Vhardware
p360
VLoongson 3A/3B
p361
sVhardware-long
p362
VLoongson 3A or 3B based systems (e.g. from Loongson or Lemote)
p363
ss(Vbase
p364
NVrt
p365
tp366
(dp367
Venabled
p368
I00
ss(Vbase
p369
Vsparc
p370
tp371
(dp372
Vfeaturesets
p373
(lp374
sVkernel-arch
p375
Vsparc
p376
ss(Vbuild
p377
g254
tp378
(dp379
Vimage-file
p380
Varch/alpha/boot/vmlinux.gz
p381
ss(Vdescription
p382
g67
NVsh7751r
p383
tp384
(dp385
Vhardware
p386
Vsh7751r
p387
sVhardware-long
p388
VRenesas SH7751R R2D plus board
p389
ss(Vbuild
p390
g25
tp391
(dp392
Vimage-file
p393
Vvmlinux
p394
ss(Vbase
p395
g5
tp396
(dp397
Vfeaturesets
p398
(lp399
Vnone
p400
asVkernel-arch
p401
Vx86
p402
sVcompiler
p403
Vgcc-4.9
p404
ss(Vbuild
p405
Vpowerpcspe
p406
tp407
(dp408
Vimage-file
p409
Vvmlinux
p410
sVvdso
p411
I01
ss(Vbase
p412
g254
tp413
(dp414
g28
(lp415
g30
asVkernel-arch
p416
Valpha
p417
ss(Vimage
p418
g96
tp419
(dp420
Vsuggests
p421
Vsilo, fdutils
p422
sVconfigs
p423
(lp424
sVinstall-stem
p425
Vvmlinuz
p426
ss(Vdescription
p427
g25
NVloongson-2e
p428
tp429
(dp430
Vhardware
p431
VLoongson 2E
p432
sVhardware-long
p433
VLemote Loongson 2E systems
p434
ss(Vimage
p435
g294
tp436
(dp437
Vsuggests
p438
Vfdutils
p439
sVconfigs
p440
(lp441
Vkernelarch-arm/config
p442
aVarmel/config
p443
asVinstall-stem
p444
Vvmlinuz
p445
ss(g217
g254
g30
tp446
(dp447
g220
(lp448
Valpha-generic
p449
aValpha-smp
p450
asg225
I01
ss(Vrelations
p451
g325
tp452
(dp453
Vheaders%gcc-4.9
p454
Vlinux-compiler-gcc-4.9-arm
p455
ss(Vimage
p456
g305
tp457
(dp458
Vsuggests
p459
Vmkvmlinuz
p460
sVconfigs
p461
(lp462
sVinstall-stem
p463
Vvmlinux
p464
ss(g217
g406
g30
tp465
(dp466
g220
(lp467
Vpowerpcspe
p468
asg225
I01
ss(Vimage
p469
g25
NV5kc-malta
p470
tp471
(dp472
Vconfigs
p473
(lp474
Vkernelarch-mips/config.5kc-malta
p475
ass(g217
g80
g30
tp476
(dp477
g220
(lp478
V5kc-malta
p479
aVocteon
p480
asg225
I01
ss(Vdescription
p481
g19
NV5kc-malta
p482
tp483
(dp484
Vhardware
p485
VMIPS Malta (64-bit)
p486
sVhardware-long
p487
VMIPS Malta boards (64-bit)
p488
ss(Vdescription
p489
g25
NVloongson-3
p490
tp491
(dp492
Vhardware
p493
VLoongson 3A/3B
p494
sVhardware-long
p495
VLoongson 3A or 3B based systems (e.g. from Loongson or Lemote)
p496
ss(Vbase
p497
g12
tp498
(dp499
Vcflags
p500
V-ffreestanding
p501
sVkernel-arch
p502
Vm68k
p503
sg28
(lp504
g30
asVcompiler
p505
Vgcc-4.8
p506
ss(Vdescription
p507
g96
NVsparc64
p508
tp509
(dp510
Vhardware
p511
Vuniprocessor 64-bit UltraSPARC
p512
ss(Vbase
p513
g305
tp514
(dp515
g28
(lp516
g30
asVkernel-arch
p517
Vpowerpc
p518
ss(Vbase
p519
g19
tp520
(dp521
g28
(lp522
g30
asVkernel-arch
p523
Vmips
p524
ss(Vimage
p525
g80
NV5kc-malta
p526
tp527
(dp528
Vconfigs
p529
(lp530
Vkernelarch-mips/config.5kc-malta
p531
ass(Vimage
p532
g34
tp533
(dp534
Vsuggests
p535
Vmkvmlinuz
p536
sVconfigs
p537
(lp538
sVinstall-stem
p539
Vvmlinux
p540
ss(Vdescription
p541
g67
NVsh7785lcr
p542
tp543
(dp544
Vhardware
p545
Vsh7785lcr
p546
sVhardware-long
p547
VRenesas SH7785 reference board
p548
ss(Vbuild
p549
g96
tp550
(dp551
Vimage-file
p552
Varch/sparc/boot/zImage
p553
ss(Vbuild
p554
g5
NV686-pae
p555
tp556
(dp557
Vdebug-info
p558
I01
ss(Vbase
p559
g34
tp560
(dp561
g28
(lp562
g30
asVkernel-arch
p563
Vpowerpc
p564
ss(Vbase
p565
g170
Vnone
p566
tp567
(dp568
Vflavours
p569
(lp570
Varm64
p571
ass(Vbase
p572
Vor1k
p573
tp574
(dp575
Vfeaturesets
p576
(lp577
sVkernel-arch
p578
Vopenrisc
p579
ss(Vdescription
p580
g356
NV5kc-malta
p581
tp582
(dp583
Vhardware
p584
VMIPS Malta
p585
sVhardware-long
p586
VMIPS Malta boards
p587
ss(Vimage
p588
g96
NVsparc64-smp
p589
tp590
(dp591
Vconfigs
p592
(lp593
Vkernelarch-sparc/config-smp
p594
ass(g217
g12
g30
tp595
(dp596
g220
(lp597
Vm68k
p598
asg225
I01
ss(Vimage
p599
g25
NVloongson-2e
p600
tp601
(dp602
Vconfigs
p603
(lp604
Vkernelarch-mips/config.loongson-2e
p605
ass(Vdescription
p606
g406
tp607
(dp608
Vhardware
p609
V32-bit PowerPC with SPE (instead of AltiVec) with SMP support
p610
ss(Vdescription
p611
g294
NVversatile
p612
tp613
(dp614
Vhardware
p615
VVersatile
p616
sVhardware-long
p617
VVersatile systems (PB, AB, Qemu)
p618
ss(g217
g356
g30
tp619
(dp620
g220
(lp621
V5kc-malta
p622
aVloongson-3
p623
aVocteon
p624
asg225
I01
ss(Vdescription
p625
g294
NVmarvell
p626
tp627
(dp628
Vhardware
p629
VMarvell Kirkwood/Orion
p630
sVhardware-long
p631
VMarvell Kirkwood based systems (SheevaPlug, QNAP TS-119/TS-219, etc)\u000aand Orion 5181, 5182 and 5281 based systems (QNAP TS-109/TS-209, etc)
p632
ss(Vrelations
p633
g134
tp634
(dp635
Vgcc-4.9
p636
Vgcc-4.9 <!stage1>, binutils-hppa64 <!stage1>, gcc-4.9-hppa64 <!stage1>
p637
ss(Vimage
p638
g117
NVamd64
p639
tp640
(dp641
Vconfigs
p642
(lp643
Vkernelarch-x86/config-arch-64
p644
ass(Vdescription
p645
g25
NV5kc-malta
p646
tp647
(dp648
Vhardware
p649
VMIPS Malta (64-bit)
p650
sVhardware-long
p651
VMIPS Malta boards (64-bit)
p652
ss(Vdescription
p653
g41
NVpowerpc64le
p654
tp655
(dp656
Vhardware
p657
VLittle-endian 64-bit PowerPC
p658
ss(Vimage
p659
g19
NV5kc-malta
p660
tp661
(dp662
Vconfigs
p663
(lp664
Vkernelarch-mips/config.5kc-malta
p665
ass(Vbase
p666
g117
g334
tp667
(dp668
Vflavours
p669
(lp670
Vamd64
p671
ass(Vbuild
p672
g19
tp673
(dp674
Vimage-file
p675
Vvmlinux
p676
ss(Vbase
p677
g356
tp678
(dp679
g28
(lp680
g30
asVkernel-arch
p681
Vmips
p682
ss(Vimage
p683
g170
tp684
(dp685
Vinstall-stem
p686
Vvmlinuz
p687
ss(g217
g305
g30
tp688
(dp689
g220
(lp690
Vpowerpc64
p691
asg225
I01
ss(Vdescription
p692
g170
NVarm64
p693
tp694
(dp695
Vhardware
p696
V64-bit ARMv8 machines
p697
ss(Vbuild
p698
g134
tp699
(dp700
Vimage-file
p701
Vvmlinux
p702
ss(Vdescription
p703
g80
NV5kc-malta
p704
tp705
(dp706
Vhardware
p707
VMIPS Malta
p708
sVhardware-long
p709
VMIPS Malta boards
p710
ss(Vimage
p711
g406
tp712
(dp713
Vsuggests
p714
Vmkvmlinuz
p715
sVinstall-stem
p716
Vvmlinux
p717
ss(Vrelations
p718
g294
tp719
(dp720
Vheaders%gcc-4.9
p721
Vlinux-compiler-gcc-4.9-arm
p722
ss(Vbuild
p723
g67
tp724
(dp725
Vimage-file
p726
Varch/sh/boot/zImage
p727
ss(Vimage
p728
g48
NVs390x
p729
tp730
(dp731
Vconfigs
p732
(lp733
Vkernelarch-s390/config-arch-64
p734
ass(Vimage
p735
g325
tp736
(dp737
Vsuggests
p738
Vfdutils
p739
sVconfigs
p740
(lp741
Vkernelarch-arm/config
p742
asVinstall-stem
p743
Vvmlinuz
p744
ss(Vbase
p745
g134
NVparisc64-smp
p746
tp747
(dp748
Voverride-host-type
p749
Vhppa64-linux-gnu
p750
sVcflags
p751
V-fno-cse-follow-jumps
p752
ss(Vversion
p753
tp754
(dp755
Vsource
p756
V4.4.2-3+wmf1
p757
sVupstream
p758
V4.4
p759
sVabiname_base
p760
V4.4.0
p761
sVabiname
p762
V4.4.0-1
p763
ss(Vdescription
p764
g34
NVpowerpc-smp
p765
tp766
(dp767
Vhardware
p768
Vmultiprocessor 32-bit PowerPC
p769
ss(Vimage
p770
g356
tp771
(dp772
Vinstall-stem
p773
Vvmlinux
p774
ss(Vimage
p775
g356
NV5kc-malta
p776
tp777
(dp778
Vconfigs
p779
(lp780
Vkernelarch-mips/config.5kc-malta
p781
ass(g217
g294
g30
tp782
(dp783
g220
(lp784
Vmarvell
p785
aVversatile
p786
asg225
I01
ss(Vdescription
p787
g19
NVocteon
p788
tp789
(dp790
Vhardware
p791
VOcteon
p792
sVhardware-long
p793
VCavium Networks Octeon
p794
ss(Vbase
p795
g406
tp796
(dp797
g28
(lp798
g30
asVkernel-arch
p799
Vpowerpc
p800
ss(Vimage
p801
g134
tp802
(dp803
Vsuggests
p804
Vpalo
p805
sVinstall-stem
p806
Vvmlinux
p807
ss(Vbase
p808
g325
tp809
(dp810
g28
(lp811
g30
asVkernel-arch
p812
Varm
p813
ss(Vbase
p814
g5
g281
tp815
(dp816
Vflavours
p817
(lp818
V686
p819
aV686-pae
p820
ass(Vimage
p821
tp822
(dp823
Vinitramfs-generators
p824
(lp825
Vinitramfs-tools
p826
aVinitramfs-fallback
p827
ass(g217
g96
g30
tp828
(dp829
g220
(lp830
Vsparc64
p831
aVsparc64-smp
p832
asg225
I01
ss(Vimage
p833
g25
NVloongson-3
p834
tp835
(dp836
Vconfigs
p837
(lp838
Vkernelarch-mips/config.loongson-3
p839
ass(Vimage
p840
g305
NVpowerpc64
p841
tp842
(dp843
Vconfigs
p844
(lp845
Vkernelarch-powerpc/config-arch-64
p846
aVkernelarch-powerpc/config-arch-64-be
p847
ass(Vdescription
p848
g117
NVamd64
p849
tp850
(dp851
Vhardware
p852
V64-bit PCs
p853
sVhardware-long
p854
VPCs with AMD64, Intel 64 or VIA Nano processors
p855
ss(g217
g325
g30
tp856
(dp857
g220
(lp858
Varmmp
p859
aVarmmp-lpae
p860
asg225
I01
ss(g217
g67
g30
tp861
(dp862
g220
(lp863
Vsh7751r
p864
aVsh7785lcr
p865
asg225
I01
ss(Vbase
p866
g67
tp867
(dp868
g28
(lp869
g30
asVkernel-arch
p870
Vsh
p871
ss(Vdescription
p872
g356
NVocteon
p873
tp874
(dp875
Vhardware
p876
VOcteon
p877
sVhardware-long
p878
VCavium Networks Octeon
p879
ss(Vimage
p880
g5
NV686-pae
p881
tp882
(dp883
Vconfigs
p884
(lp885
Vkernelarch-x86/config-arch-32
p886
aVi386/config.686-pae
p887
asVrecommends
p888
Vlibc6-i686
p889
ss(Vdescription
p890
g325
NVarmmp
p891
tp892
(dp893
Vhardware
p894
VARMv7 multiplatform compatible SoCs
p895
sVhardware-long
p896
VARMv7 multiplatform kernel. See\u000ahttps://wiki.debian.org/DebianKernel/ARMMP for details of supported\u000aplatforms
p897
ss(Vimage
p898
g356
NVloongson-3
p899
tp900
(dp901
Vconfigs
p902
(lp903
Vkernelarch-mips/config.loongson-3
p904
ass(Vbase
p905
g294
tp906
(dp907
g28
(lp908
g30
asVkernel-arch
p909
Varm
p910
ss(Vdescription
p911
g134
NVparisc
p912
tp913
(dp914
Vhardware
p915
V32-bit PA-RISC
p916
sVhardware-long
p917
VHP PA-RISC 32-bit systems with max 4 GB RAM
p918
ss(Vdescription
p919
g48
NVs390x
p920
tp921
(dp922
Vhardware
p923
VIBM zSeries
p924
ss(Vbase
p925
Vs390
p926
tp927
(dp928
Vfeaturesets
p929
(lp930
sVkernel-arch
p931
Vs390
p932
ss(Vimage
p933
g41
NVpowerpc64le
p934
tp935
(dp936
Vconfigs
p937
(lp938
Vkernelarch-powerpc/config-arch-64
p939
aVkernelarch-powerpc/config-arch-64-le
p940
ass(Vdescription
p941
g5
NV686-pae
p942
tp943
(dp944
Vhardware
p945
Vmodern PCs
p946
sVparts
p947
(lp948
Vpae
p949
asVhardware-long
p950
VPCs with one or more processors supporting PAE
p951
ss(g217
g34
g30
tp952
(dp953
g220
(lp954
Vpowerpc
p955
aVpowerpc-smp
p956
aVpowerpc64
p957
asg225
I01
ss(Vbase
p958
g96
tp959
(dp960
g28
(lp961
g30
asVkernel-arch
p962
Vsparc
p963
ss(Vimage
p964
g34
NVpowerpc-smp
p965
tp966
(dp967
Vconfigs
p968
(lp969
Vpowerpc/config.powerpc
p970
aVpowerpc/config.powerpc-smp
p971
ass(Vbase
p972
g80
tp973
(dp974
g28
(lp975
g30
asVkernel-arch
p976
Vmips
p977
ss(Vimage
p978
g19
NVocteon
p979
tp980
(dp981
Vconfigs
p982
(lp983
Vkernelarch-mips/config.octeon
p984
ass(Vimage
p985
g170
NVarm64
p986
tp987
(dp988
s(g217
g48
g30
tp989
(dp990
g220
(lp991
Vs390x
p992
asg225
I01
ss(Vimage
p993
g34
NVpowerpc64
p994
tp995
(dp996
Vconfigs
p997
(lp998
Vkernelarch-powerpc/config-arch-64
p999
aVkernelarch-powerpc/config-arch-64-be
p1000
ass(Vdescription
p1001
g25
NV4kc-malta
p1002
tp1003
(dp1004
Vhardware
p1005
VMIPS Malta
p1006
sVhardware-long
p1007
VMIPS Malta boards
p1008
ss(Vdescription
p1009
g80
NVocteon
p1010
tp1011
(dp1012
Vhardware
p1013
VOcteon
p1014
sVhardware-long
p1015
VCavium Networks Octeon
p1016
ss(g217
g25
g30
tp1017
(dp1018
g220
(lp1019
V4kc-malta
p1020
aV5kc-malta
p1021
aVloongson-2e
p1022
aVloongson-2f
p1023
aVloongson-3
p1024
asg225
I01
ss(Vbuild
p1025
g34
tp1026
(dp1027
Vimage-file
p1028
Vvmlinux
p1029
sVvdso
p1030
I01
ss(Vbuild
p1031
g117
tp1032
(dp1033
Vdebug-info
p1034
I01
sVimage-file
p1035
Varch/x86/boot/bzImage
p1036
sVvdso
p1037
I01
ss(Vbase
p1038
tp1039
(dp1040
Varches
p1041
(lp1042
Valpha
p1043
aVamd64
p1044
aVarm64
p1045
aVarmel
p1046
aVarmhf
p1047
aVhppa
p1048
aVi386
p1049
aVm68k
p1050
aVmips
p1051
aVmipsel
p1052
aVmips64
p1053
aVmips64el
p1054
aVor1k
p1055
aVpowerpc
p1056
aVpowerpcspe
p1057
aVppc64
p1058
aVppc64el
p1059
aVs390
p1060
aVs390x
p1061
aVsh4
p1062
aVsparc
p1063
aVsparc64
p1064
aVx32
p1065
asVfeaturesets
p1066
(lp1067
Vnone
p1068
asVcompiler
p1069
Vgcc-4.9
p1070
ss(Vbase
p1071
Vx32
p1072
tp1073
(dp1074
Vfeaturesets
p1075
(lp1076
sVkernel-arch
p1077
Vx86
p1078
ss(Vimage
p1079
g25
NVloongson-2f
p1080
tp1081
(dp1082
Vconfigs
p1083
(lp1084
Vkernelarch-mips/config.loongson-2f
p1085
asVrecommends
p1086
Vlibc6-loongson2f
p1087
ss(Vxen
p1088
g117
g334
Vamd64
p1089
tp1090
(dp1091
Vflavours
p1092
(lp1093
Vamd64
p1094
ass(Vdescription
p1095
g134
NVparisc64-smp
p1096
tp1097
(dp1098
Vhardware
p1099
Vmultiprocessor 64-bit PA-RISC
p1100
sVhardware-long
p1101
VHP PA-RISC 64-bit SMP systems with support for more than 4 GB RAM
p1102
ss(Vimage
p1103
g356
NVocteon
p1104
tp1105
(dp1106
Vconfigs
p1107
(lp1108
Vkernelarch-mips/config.octeon
p1109
ass(Vbuild
p1110
g356
tp1111
(dp1112
Vimage-file
p1113
Vvmlinux
p1114
ss(Vbuild
p1115
g294
tp1116
(dp1117
Vimage-file
p1118
Varch/arm/boot/zImage
p1119
ss(Vrelations
p1120
g48
tp1121
(dp1122
Vheaders%gcc-4.9
p1123
Vlinux-compiler-gcc-4.9-s390
p1124
ss(Vbuild
p1125
g48
NVs390x
p1126
tp1127
(dp1128
Vdebug-info
p1129
I01
ss(g217
g41
g30
tp1130
(dp1131
g220
(lp1132
Vpowerpc64le
p1133
asg225
I01
ss(Vdescription
p1134
g254
NValpha-smp
p1135
tp1136
(dp1137
Vhardware
p1138
VAlpha SMP
p1139
sVhardware-long
p1140
VDEC Alpha SMP systems with extended kernel start address (Wildfire, Titan, Marvel)
p1141
ss(Vrelations
p1142
g5
tp1143
(dp1144
Vheaders%gcc-5
p1145
Vlinux-compiler-gcc-5-x86
p1146
ss(Vimage
p1147
g25
tp1148
(dp1149
Vinstall-stem
p1150
Vvmlinux
p1151
ss(Vbuild
p1152
g325
tp1153
(dp1154
Vimage-file
p1155
Varch/arm/boot/zImage
p1156
sVvdso
p1157
I01
ss(Vdescription
p1158
g305
NVpowerpc64
p1159
tp1160
(dp1161
Vhardware
p1162
V64-bit PowerPC
p1163
ss(Vimage
p1164
g12
tp1165
(dp1166
Vsuggests
p1167
Vvmelilo, fdutils
p1168
sVinstall-stem
p1169
Vvmlinuz
p1170
ss(Vimage
p1171
g325
NVarmmp-lpae
p1172
tp1173
(dp1174
Vconfigs
p1175
(lp1176
Varmhf/config.armmp
p1177
aVarmhf/config.lpae
p1178
ass(Vrelations
p1179
g117
tp1180
(dp1181
Vheaders%gcc-5
p1182
Vlinux-compiler-gcc-5-x86
p1183
sstp1184
Rp1185
.