ccopy_reg
_reconstructor
p0
(cdebian_linux.config
ConfigCore
p1
c__builtin__
dict
p2
(dp3
(Vimage
p4
Vmips64el
p5
tp6
(dp7
Vinstall-stem
p8
Vvmlinux
p9
ss(Vbuild
p10
Vmipsel
p11
tp12
(dp13
Vimage-file
p14
Vvmlinux
p15
ss(Vimage
p16
g11
NVloongson-2e
p17
tp18
(dp19
Vconfigs
p20
(lp21
Vkernelarch-mips/config.loongson-2e
p22
ass(Vbase
p23
Vppc64el
p24
Vnone
p25
tp26
(dp27
Vflavours
p28
(lp29
Vpowerpc64le
p30
asVimplicit-flavour
p31
I01
ss(Vimage
p32
Vpowerpcspe
p33
tp34
(dp35
Vinstall-stem
p36
Vvmlinux
p37
sVsuggests
p38
Vmkvmlinuz
p39
ss(Vbase
p40
Vsh4
p41
tp42
(dp43
Vkernel-arch
p44
Vsh
p45
sVfeaturesets
p46
(lp47
g25
ass(Vdescription
p48
g5
NV5kc-malta
p49
tp50
(dp51
Vhardware
p52
VMIPS Malta
p53
sVhardware-long
p54
VMIPS Malta boards
p55
ss(Vimage
p56
Vmips
p57
NV4kc-malta
p58
tp59
(dp60
Vconfigs
p61
(lp62
Vkernelarch-mips/config.4kc-malta
p63
ass(Vbuild
p64
Vmips64
p65
tp66
(dp67
Vimage-file
p68
Vvmlinux
p69
ss(Vbuild
p70
Vi386
p71
NV686-pae
p72
tp73
(dp74
Vdebug-info
p75
I01
ss(Vimage
p76
g11
tp77
(dp78
Vinstall-stem
p79
Vvmlinux
p80
ss(g23
Vs390x
p81
g25
tp82
(dp83
g28
(lp84
Vs390x
p85
asg31
I01
ss(Vdescription
p86
g11
NV5kc-malta
p87
tp88
(dp89
Vhardware
p90
VMIPS Malta (64-bit)
p91
sVhardware-long
p92
VMIPS Malta boards (64-bit)
p93
ss(Vdescription
p94
Vhppa
p95
NVparisc64-smp
p96
tp97
(dp98
Vhardware
p99
Vmultiprocessor 64-bit PA-RISC
p100
sVhardware-long
p101
VHP PA-RISC 64-bit SMP systems with support for more than 4 GB RAM
p102
ss(Vrelations
p103
Vamd64
p104
tp105
(dp106
Vheaders%gcc-5
p107
Vlinux-compiler-gcc-5-x86
p108
ss(Vdescription
p109
g41
NVsh7751r
p110
tp111
(dp112
Vhardware
p113
Vsh7751r
p114
sVhardware-long
p115
VRenesas SH7751R R2D plus board
p116
ss(Vbase
p117
g95
tp118
(dp119
Vkernel-arch
p120
Vparisc
p121
sg46
(lp122
g25
ass(Vimage
p123
Vsparc64
p124
NVsparc64-smp
p125
tp126
(dp127
Vconfigs
p128
(lp129
Vkernelarch-sparc/config-smp
p130
ass(Vimage
p131
g57
NVocteon
p132
tp133
(dp134
Vconfigs
p135
(lp136
Vkernelarch-mips/config.octeon
p137
ass(g23
g65
g25
tp138
(dp139
g28
(lp140
V5kc-malta
p141
aVocteon
p142
asg31
I01
ss(Vbase
p143
g71
tp144
(dp145
Vcompiler
p146
Vgcc-4.9
p147
sVkernel-arch
p148
Vx86
p149
sVfeaturesets
p150
(lp151
Vnone
p152
ass(Vbuild
p153
Varmel
p154
tp155
(dp156
Vimage-file
p157
Varch/arm/boot/zImage
p158
ss(Vbase
p159
Vx32
p160
tp161
(dp162
Vkernel-arch
p163
Vx86
p164
sVfeaturesets
p165
(lp166
ss(Vrelations
p167
g71
tp168
(dp169
Vheaders%gcc-5
p170
Vlinux-compiler-gcc-5-x86
p171
ss(Vbase
p172
g24
tp173
(dp174
Vkernel-arch
p175
Vpowerpc
p176
sg46
(lp177
g25
ass(Vbase
p178
g57
tp179
(dp180
Vkernel-arch
p181
Vmips
p182
sg46
(lp183
g25
ass(g23
g95
g25
tp184
(dp185
g28
(lp186
Vparisc
p187
aVparisc64-smp
p188
asg31
I01
ss(Vbase
p189
Varmhf
p190
tp191
(dp192
Vkernel-arch
p193
Varm
p194
sg46
(lp195
g25
ass(Vdescription
p196
g71
Vnone
p197
V686-pae
p198
tp199
(dp200
Vparts
p201
(lp202
Vxen
p203
ass(Vimage
p204
Vpowerpc
p205
NVpowerpc-smp
p206
tp207
(dp208
Vconfigs
p209
(lp210
Vpowerpc/config.powerpc
p211
aVpowerpc/config.powerpc-smp
p212
ass(Vbase
p213
Vsparc
p214
tp215
(dp216
Vkernel-arch
p217
Vsparc
p218
sVfeaturesets
p219
(lp220
ss(Vbuild
p221
g81
tp222
(dp223
Vimage-file
p224
Varch/s390/boot/image
p225
sVvdso
p226
I01
ss(Vimage
p227
g104
tp228
(dp229
Vinstall-stem
p230
Vvmlinuz
p231
sVbreaks
p232
Vxserver-xorg-input-vmmouse (<< 1:13.0.99)
p233
sVbootloaders
p234
(lp235
Vgrub-pc
p236
aVgrub-efi
p237
aVextlinux
p238
asVconfigs
p239
(lp240
ss(Vabi
p241
tp242
(dp243
Vabiname
p244
V4
p245
ss(Vdescription
p246
Varm64
p247
NVarm64
p248
tp249
(dp250
Vhardware
p251
V64-bit ARMv8 machines
p252
ss(Vimage
p253
g11
NV4kc-malta
p254
tp255
(dp256
Vconfigs
p257
(lp258
Vkernelarch-mips/config.4kc-malta
p259
ass(Vimage
p260
g154
tp261
(dp262
Vinstall-stem
p263
Vvmlinuz
p264
sVsuggests
p265
Vfdutils
p266
sVconfigs
p267
(lp268
Vkernelarch-arm/config
p269
aVarmel/config
p270
ass(Vdescription
p271
g71
NV686-pae
p272
tp273
(dp274
Vhardware
p275
Vmodern PCs
p276
sVhardware-long
p277
VPCs with one or more processors supporting PAE
p278
sVparts
p279
(lp280
Vpae
p281
ass(Vimage
p282
g65
NV5kc-malta
p283
tp284
(dp285
Vconfigs
p286
(lp287
Vkernelarch-mips/config.5kc-malta
p288
ass(Vbase
p289
Vs390
p290
tp291
(dp292
Vkernel-arch
p293
Vs390
p294
sVfeaturesets
p295
(lp296
ss(Vimage
p297
g247
NVarm64
p298
tp299
(dp300
s(Vdescription
p301
g11
NV4kc-malta
p302
tp303
(dp304
Vhardware
p305
VMIPS Malta
p306
sVhardware-long
p307
VMIPS Malta boards
p308
ss(Vdescription
p309
g11
NVloongson-2f
p310
tp311
(dp312
Vhardware
p313
VLoongson 2F
p314
sVhardware-long
p315
VLemote Loongson 2F systems
p316
ss(Vimage
p317
g190
NVarmmp-lpae
p318
tp319
(dp320
Vconfigs
p321
(lp322
Varmhf/config.armmp
p323
aVarmhf/config.lpae
p324
ass(Vdescription
p325
g190
NVarmmp
p326
tp327
(dp328
Vhardware
p329
VARMv7 multiplatform compatible SoCs
p330
sVhardware-long
p331
VARMv7 multiplatform kernel. See\u000ahttps://wiki.debian.org/DebianKernel/ARMMP for details of supported\u000aplatforms
p332
ss(g23
g124
g25
tp333
(dp334
g28
(lp335
Vsparc64
p336
aVsparc64-smp
p337
asg31
I01
ss(Vbuild
p338
g57
tp339
(dp340
Vimage-file
p341
Vvmlinux
p342
ss(Vbuild
p343
Valpha
p344
tp345
(dp346
Vimage-file
p347
Varch/alpha/boot/vmlinux.gz
p348
ss(Vimage
p349
g81
NVs390x
p350
tp351
(dp352
Vconfigs
p353
(lp354
Vkernelarch-s390/config-arch-64
p355
ass(Vdescription
p356
g344
NValpha-smp
p357
tp358
(dp359
Vhardware
p360
VAlpha SMP
p361
sVhardware-long
p362
VDEC Alpha SMP systems with extended kernel start address (Wildfire, Titan, Marvel)
p363
ss(Vbuild
p364
g71
tp365
(dp366
Vimage-file
p367
Varch/x86/boot/bzImage
p368
sVvdso
p369
I01
ss(Vbase
p370
g71
g197
tp371
(dp372
Vflavours
p373
(lp374
V686
p375
aV686-pae
p376
ass(g23
Vppc64
p377
g25
tp378
(dp379
g28
(lp380
Vpowerpc64
p381
asg31
I01
ss(Vimage
p382
g24
tp383
(dp384
Vinstall-stem
p385
Vvmlinux
p386
sVsuggests
p387
Vmkvmlinuz
p388
sVconfigs
p389
(lp390
ss(Vdescription
p391
g5
NVocteon
p392
tp393
(dp394
Vhardware
p395
VOcteon
p396
sVhardware-long
p397
VCavium Networks Octeon
p398
ss(Vbuild
p399
g377
tp400
(dp401
Vimage-file
p402
Vvmlinux
p403
sVvdso
p404
I01
ss(g23
g5
g25
tp405
(dp406
g28
(lp407
V5kc-malta
p408
aVloongson-3
p409
aVocteon
p410
asg31
I01
ss(Vbase
p411
g95
NVparisc64-smp
p412
tp413
(dp414
Vcflags
p415
V-fno-cse-follow-jumps
p416
sVoverride-host-type
p417
Vhppa64-linux-gnu
p418
ss(Vdescription
p419
Vm68k
p420
NVm68k
p421
tp422
(dp423
Vhardware
p424
VMotorola MC68020+ family
p425
ss(Vdescription
p426
g104
Vnone
p427
Vamd64
p428
tp429
(dp430
Vparts
p431
(lp432
Vxen
p433
ass(Vdescription
p434
g41
NVsh7785lcr
p435
tp436
(dp437
Vhardware
p438
Vsh7785lcr
p439
sVhardware-long
p440
VRenesas SH7785 reference board
p441
ss(Vbase
p442
g104
g427
tp443
(dp444
Vflavours
p445
(lp446
Vamd64
p447
ass(Vimage
p448
g5
NV5kc-malta
p449
tp450
(dp451
Vconfigs
p452
(lp453
Vkernelarch-mips/config.5kc-malta
p454
ass(Vimage
p455
g377
tp456
(dp457
Vinstall-stem
p458
Vvmlinux
p459
sVsuggests
p460
Vmkvmlinuz
p461
sVconfigs
p462
(lp463
ss(Vdescription
p464
g65
NVocteon
p465
tp466
(dp467
Vhardware
p468
VOcteon
p469
sVhardware-long
p470
VCavium Networks Octeon
p471
ss(Vimage
p472
g71
NV686
p473
tp474
(dp475
Vrecommends
p476
Vlibc6-i686
p477
sVconfigs
p478
(lp479
Vkernelarch-x86/config-arch-32
p480
aVi386/config.686
p481
ass(Vimage
p482
g5
NVloongson-3
p483
tp484
(dp485
Vconfigs
p486
(lp487
Vkernelarch-mips/config.loongson-3
p488
ass(Vdescription
p489
g205
NVpowerpc64
p490
tp491
(dp492
Vhardware
p493
V64-bit PowerPC
p494
ss(Vdescription
p495
g65
NV5kc-malta
p496
tp497
(dp498
Vhardware
p499
VMIPS Malta
p500
sVhardware-long
p501
VMIPS Malta boards
p502
ss(Vbase
p503
g124
tp504
(dp505
Vkernel-arch
p506
Vsparc
p507
sg46
(lp508
g25
ass(Vdescription
p509
g71
tp510
(dp511
Vpart-long-pae
p512
VThis kernel requires PAE (Physical Address Extension).\u000aThis feature is supported by the Intel Pentium Pro/II/III/4/4M/D, Xeon,\u000aCore and Atom; AMD Geode NX, Athlon (K7), Duron, Opteron, Sempron,\u000aTurion or Phenom; Transmeta Efficeon; VIA C7; and some other processors.
p513
ss(Vimage
p514
g24
NVpowerpc64le
p515
tp516
(dp517
Vconfigs
p518
(lp519
Vkernelarch-powerpc/config-arch-64
p520
aVkernelarch-powerpc/config-arch-64-le
p521
ass(Vrelations
p522
g154
tp523
(dp524
Vheaders%gcc-4.9
p525
Vlinux-compiler-gcc-4.9-arm
p526
ss(Vdescription
p527
g81
NVs390x
p528
tp529
(dp530
Vhardware
p531
VIBM zSeries
p532
ss(Vdescription
p533
g57
NV4kc-malta
p534
tp535
(dp536
Vhardware
p537
VMIPS Malta
p538
sVhardware-long
p539
VMIPS Malta boards
p540
ss(Vimage
p541
g205
NVpowerpc64
p542
tp543
(dp544
Vconfigs
p545
(lp546
Vkernelarch-powerpc/config-arch-64
p547
aVkernelarch-powerpc/config-arch-64-be
p548
ass(Vbase
p549
g5
tp550
(dp551
Vkernel-arch
p552
Vmips
p553
sg46
(lp554
g25
ass(Vimage
p555
g57
tp556
(dp557
Vinstall-stem
p558
Vvmlinux
p559
ss(g23
g420
g25
tp560
(dp561
g28
(lp562
Vm68k
p563
asg31
I01
ss(g23
g154
g25
tp564
(dp565
g28
(lp566
Vmarvell
p567
aVversatile
p568
asg31
I01
ss(Vdescription
p569
g154
NVversatile
p570
tp571
(dp572
Vhardware
p573
VVersatile
p574
sVhardware-long
p575
VVersatile systems (PB, AB, Qemu)
p576
ss(Vbase
p577
g247
Vnone
p578
tp579
(dp580
Vflavours
p581
(lp582
Varm64
p583
ass(Vdescription
p584
g95
NVparisc
p585
tp586
(dp587
Vhardware
p588
V32-bit PA-RISC
p589
sVhardware-long
p590
VHP PA-RISC 32-bit systems with max 4 GB RAM
p591
ss(g23
g11
g25
tp592
(dp593
g28
(lp594
V4kc-malta
p595
aV5kc-malta
p596
aVloongson-2e
p597
aVloongson-2f
p598
aVloongson-3
p599
asg31
I01
ss(Vimage
p600
g95
tp601
(dp602
Vinstall-stem
p603
Vvmlinux
p604
sVsuggests
p605
Vpalo
p606
ss(Vimage
p607
g65
tp608
(dp609
Vinstall-stem
p610
Vvmlinux
p611
ss(Vdescription
p612
g5
NVloongson-3
p613
tp614
(dp615
Vhardware
p616
VLoongson 3A/3B
p617
sVhardware-long
p618
VLoongson 3A or 3B based systems (e.g. from Loongson or Lemote)
p619
ss(Vbuild
p620
g247
tp621
(dp622
Vimage-file
p623
Varch/arm64/boot/Image
p624
sVdebug-info
p625
I01
sVvdso
p626
I01
ss(Vdescription
p627
g57
NVocteon
p628
tp629
(dp630
Vhardware
p631
VOcteon
p632
sVhardware-long
p633
VCavium Networks Octeon
p634
ss(Vdescription
p635
g71
NV686
p636
tp637
(dp638
Vhardware
p639
Volder PCs
p640
sVhardware-long
p641
VPCs with one or more processors not supporting PAE
p642
ss(Vbuild
p643
g124
tp644
(dp645
Vimage-file
p646
Varch/sparc/boot/zImage
p647
ss(Vdescription
p648
g205
NVpowerpc
p649
tp650
(dp651
Vhardware
p652
Vuniprocessor 32-bit PowerPC
p653
ss(Vdescription
p654
g11
NVloongson-2e
p655
tp656
(dp657
Vhardware
p658
VLoongson 2E
p659
sVhardware-long
p660
VLemote Loongson 2E systems
p661
ss(Vdescription
p662
tp663
(dp664
Vpart-long-up
p665
VThis kernel is not suitable for SMP (multi-processor,\u000amulti-core or hyper-threaded) systems.
p666
sVpart-long-xen
p667
VThis kernel also runs on a Xen hypervisor.\u000aIt supports both privileged (dom0) and unprivileged (domU) operation.
p668
ss(Vimage
p669
g154
NVmarvell
p670
tp671
(dp672
Vcheck-size-with-dtb
p673
I01
sVcheck-size
p674
L2097080L
sVbreaks
p675
Vflash-kernel (<< 3.57~)
p676
sVrecommends
p677
Vu-boot-tools
p678
ss(Vimage
p679
g11
NVloongson-3
p680
tp681
(dp682
Vconfigs
p683
(lp684
Vkernelarch-mips/config.loongson-3
p685
ass(Vbase
p686
NVrt
p687
tp688
(dp689
Venabled
p690
I00
ss(Vimage
p691
g124
tp692
(dp693
Vinstall-stem
p694
Vvmlinuz
p695
sVsuggests
p696
Vsilo, fdutils
p697
sVconfigs
p698
(lp699
ss(Vdescription
p700
g57
NV5kc-malta
p701
tp702
(dp703
Vhardware
p704
VMIPS Malta (64-bit)
p705
sVhardware-long
p706
VMIPS Malta boards (64-bit)
p707
ss(Vimage
p708
g11
NV5kc-malta
p709
tp710
(dp711
Vconfigs
p712
(lp713
Vkernelarch-mips/config.5kc-malta
p714
ass(Vimage
p715
g190
tp716
(dp717
Vinstall-stem
p718
Vvmlinuz
p719
sVsuggests
p720
Vfdutils
p721
sVconfigs
p722
(lp723
Vkernelarch-arm/config
p724
ass(Vbuild
p725
g81
NVs390x
p726
tp727
(dp728
Vdebug-info
p729
I01
ss(Vbuild
p730
g420
tp731
(dp732
Vimage-file
p733
Vvmlinux.gz
p734
ss(Vbase
p735
g377
tp736
(dp737
Vkernel-arch
p738
Vpowerpc
p739
sg46
(lp740
g25
ass(Vbuild
p741
g205
tp742
(dp743
Vimage-file
p744
Vvmlinux
p745
sVvdso
p746
I01
ss(Vdescription
p747
g124
NVsparc64
p748
tp749
(dp750
Vhardware
p751
Vuniprocessor 64-bit UltraSPARC
p752
ss(Vbase
p753
g104
tp754
(dp755
Vcompiler
p756
Vgcc-4.9
p757
sVkernel-arch
p758
Vx86
p759
sVfeaturesets
p760
(lp761
Vnone
p762
ass(Vimage
p763
g71
tp764
(dp765
Vinstall-stem
p766
Vvmlinuz
p767
sVbreaks
p768
Vxserver-xorg-input-vmmouse (<< 1:13.0.99)
p769
sVbootloaders
p770
(lp771
Vgrub-pc
p772
aVextlinux
p773
asVconfigs
p774
(lp775
ss(Vimage
p776
g81
tp777
(dp778
Vinstall-stem
p779
Vvmlinuz
p780
sVbootloaders
p781
(lp782
Vs390-tools
p783
asVconfigs
p784
(lp785
ss(Vrelations
p786
g190
tp787
(dp788
Vheaders%gcc-4.9
p789
Vlinux-compiler-gcc-4.9-arm
p790
ss(g23
g57
g25
tp791
(dp792
g28
(lp793
V4kc-malta
p794
aV5kc-malta
p795
aVocteon
p796
asg31
I01
ss(g23
g205
g25
tp797
(dp798
g28
(lp799
Vpowerpc
p800
aVpowerpc-smp
p801
aVpowerpc64
p802
asg31
I01
ss(Vrelations
p803
tp804
(dp805
Vgcc-4.8
p806
Vgcc-4.8
p807
sVinitramfs-fallback
p808
Vlinux-initramfs-tool
p809
sVgcc-5
p810
Vgcc-5
p811
sVgcc-4.9
p812
Vgcc-4.9
p813
sVinitramfs-tools
p814
Vinitramfs-tools (>= 0.110~)
p815
ss(Vbase
p816
g344
tp817
(dp818
Vkernel-arch
p819
Valpha
p820
sg46
(lp821
g25
ass(Vbuild
p822
g24
tp823
(dp824
Vimage-file
p825
Vvmlinux
p826
sVvdso
p827
I01
ss(g23
g33
g25
tp828
(dp829
g28
(lp830
Vpowerpcspe
p831
asg31
I01
ss(Vimage
p832
g377
NVpowerpc64
p833
tp834
(dp835
Vconfigs
p836
(lp837
Vkernelarch-powerpc/config-arch-64
p838
aVkernelarch-powerpc/config-arch-64-be
p839
ass(Vdescription
p840
g104
NVamd64
p841
tp842
(dp843
Vhardware
p844
V64-bit PCs
p845
sVhardware-long
p846
VPCs with AMD64, Intel 64 or VIA Nano processors
p847
ss(Vbuild
p848
g5
tp849
(dp850
Vimage-file
p851
Vvmlinux
p852
ss(Vversion
p853
tp854
(dp855
Vabiname_base
p856
V4.4.0
p857
sVupstream
p858
V4.4
p859
sVsource
p860
V4.4.2-3+wmf9
p861
sVabiname
p862
V4.4.0-4
p863
ss(Vrelations
p864
g95
tp865
(dp866
Vgcc-4.9
p867
Vgcc-4.9 <!stage1>, binutils-hppa64 <!stage1>, gcc-4.9-hppa64 <!stage1>
p868
ss(Vimage
p869
g71
NV686-pae
p870
tp871
(dp872
Vrecommends
p873
Vlibc6-i686
p874
sVconfigs
p875
(lp876
Vkernelarch-x86/config-arch-32
p877
aVi386/config.686-pae
p878
ass(g23
g190
g25
tp879
(dp880
g28
(lp881
Varmmp
p882
aVarmmp-lpae
p883
asg31
I01
ss(Vdescription
p884
g11
NVloongson-3
p885
tp886
(dp887
Vhardware
p888
VLoongson 3A/3B
p889
sVhardware-long
p890
VLoongson 3A or 3B based systems (e.g. from Loongson or Lemote)
p891
ss(Vdescription
p892
g344
NValpha-generic
p893
tp894
(dp895
Vhardware
p896
VAlpha
p897
sVhardware-long
p898
VDEC Alpha systems with extended kernel start address (Wildfire, Titan, Marvel)
p899
ss(Vbase
p900
g81
tp901
(dp902
Vkernel-arch
p903
Vs390
p904
sg46
(lp905
g25
ass(Vbase
p906
tp907
(dp908
Vcompiler
p909
Vgcc-4.9
p910
sVarches
p911
(lp912
Valpha
p913
aVamd64
p914
aVarm64
p915
aVarmel
p916
aVarmhf
p917
aVhppa
p918
aVi386
p919
aVm68k
p920
aVmips
p921
aVmipsel
p922
aVmips64
p923
aVmips64el
p924
aVor1k
p925
aVpowerpc
p926
aVpowerpcspe
p927
aVppc64
p928
aVppc64el
p929
aVs390
p930
aVs390x
p931
aVsh4
p932
aVsparc
p933
aVsparc64
p934
aVx32
p935
asVfeaturesets
p936
(lp937
Vnone
p938
ass(Vbuild
p939
g190
tp940
(dp941
Vimage-file
p942
Varch/arm/boot/zImage
p943
sVvdso
p944
I01
ss(Vxen
p945
g104
g427
Vamd64
p946
tp947
(dp948
Vflavours
p949
(lp950
Vamd64
p951
ass(Vimage
p952
g420
tp953
(dp954
Vinstall-stem
p955
Vvmlinuz
p956
sVsuggests
p957
Vvmelilo, fdutils
p958
ss(Vbase
p959
g154
tp960
(dp961
Vkernel-arch
p962
Varm
p963
sg46
(lp964
g25
ass(Vdescription
p965
g377
NVpowerpc64
p966
tp967
(dp968
Vhardware
p969
V64-bit PowerPC
p970
ss(Vimage
p971
tp972
(dp973
Vinitramfs-generators
p974
(lp975
Vinitramfs-tools
p976
aVinitramfs-fallback
p977
ass(Vbuild
p978
g104
tp979
(dp980
Vimage-file
p981
Varch/x86/boot/bzImage
p982
sVdebug-info
p983
I01
sVvdso
p984
I01
ss(Vbase
p985
g205
tp986
(dp987
Vkernel-arch
p988
Vpowerpc
p989
sg46
(lp990
g25
ass(Vbase
p991
g420
tp992
(dp993
Vcompiler
p994
Vgcc-4.8
p995
sVkernel-arch
p996
Vm68k
p997
sVcflags
p998
V-ffreestanding
p999
sg46
(lp1000
g25
ass(Vbuild
p1001
g95
tp1002
(dp1003
Vimage-file
p1004
Vvmlinux
p1005
ss(Vrelations
p1006
g81
tp1007
(dp1008
Vheaders%gcc-4.9
p1009
Vlinux-compiler-gcc-4.9-s390
p1010
ss(Vimage
p1011
g247
tp1012
(dp1013
Vinstall-stem
p1014
Vvmlinuz
p1015
ss(Vimage
p1016
g11
NVloongson-2f
p1017
tp1018
(dp1019
Vrecommends
p1020
Vlibc6-loongson2f
p1021
sVconfigs
p1022
(lp1023
Vkernelarch-mips/config.loongson-2f
p1024
ass(Vdescription
p1025
g33
tp1026
(dp1027
Vhardware
p1028
V32-bit PowerPC with SPE (instead of AltiVec) with SMP support
p1029
ss(Vdescription
p1030
g190
NVarmmp-lpae
p1031
tp1032
(dp1033
Vhardware
p1034
VARMv7 multiplatform compatible SoCs supporting LPAE
p1035
sVhardware-long
p1036
VARMv7 multiplatform kernel supporting LPAE. See\u000ahttps://wiki.debian.org/DebianKernel/ARMMP for details of supported\u000aplatforms.
p1037
ss(Vbase
p1038
g65
tp1039
(dp1040
Vkernel-arch
p1041
Vmips
p1042
sg46
(lp1043
g25
ass(Vimage
p1044
g104
NVamd64
p1045
tp1046
(dp1047
Vconfigs
p1048
(lp1049
Vkernelarch-x86/config-arch-64
p1050
ass(g23
g41
g25
tp1051
(dp1052
g28
(lp1053
Vsh7751r
p1054
aVsh7785lcr
p1055
asg31
I01
ss(Vdescription
p1056
g124
NVsparc64-smp
p1057
tp1058
(dp1059
Vhardware
p1060
Vmultiprocessor 64-bit UltraSPARC
p1061
ss(Vbuild
p1062
g41
tp1063
(dp1064
Vimage-file
p1065
Varch/sh/boot/zImage
p1066
ss(Vimage
p1067
g57
NV5kc-malta
p1068
tp1069
(dp1070
Vconfigs
p1071
(lp1072
Vkernelarch-mips/config.5kc-malta
p1073
ass(Vimage
p1074
g65
NVocteon
p1075
tp1076
(dp1077
Vconfigs
p1078
(lp1079
Vkernelarch-mips/config.octeon
p1080
ass(Vimage
p1081
g5
NVocteon
p1082
tp1083
(dp1084
Vconfigs
p1085
(lp1086
Vkernelarch-mips/config.octeon
p1087
ass(Vbase
p1088
g247
tp1089
(dp1090
Vkernel-arch
p1091
Varm64
p1092
sVfeaturesets
p1093
(lp1094
Vnone
p1095
ass(Vbase
p1096
g11
tp1097
(dp1098
Vkernel-arch
p1099
Vmips
p1100
sg46
(lp1101
g25
ass(Vdescription
p1102
g24
NVpowerpc64le
p1103
tp1104
(dp1105
Vhardware
p1106
VLittle-endian 64-bit PowerPC
p1107
ss(g23
g344
g25
tp1108
(dp1109
g28
(lp1110
Valpha-generic
p1111
aValpha-smp
p1112
asg31
I01
ss(Vdescription
p1113
g154
NVmarvell
p1114
tp1115
(dp1116
Vhardware
p1117
VMarvell Kirkwood/Orion
p1118
sVhardware-long
p1119
VMarvell Kirkwood based systems (SheevaPlug, QNAP TS-119/TS-219, etc)\u000aand Orion 5181, 5182 and 5281 based systems (QNAP TS-109/TS-209, etc)
p1120
ss(Vimage
p1121
g205
tp1122
(dp1123
Vinstall-stem
p1124
Vvmlinux
p1125
sVsuggests
p1126
Vmkvmlinuz
p1127
sVconfigs
p1128
(lp1129
ss(Vbase
p1130
Vor1k
p1131
tp1132
(dp1133
Vkernel-arch
p1134
Vopenrisc
p1135
sVfeaturesets
p1136
(lp1137
ss(Vimage
p1138
g41
tp1139
(dp1140
Vinstall-stem
p1141
Vvmlinuz
p1142
sVsuggests
p1143
Vfdutils
p1144
ss(Vbase
p1145
g33
tp1146
(dp1147
Vkernel-arch
p1148
Vpowerpc
p1149
sg46
(lp1150
g25
ass(Vimage
p1151
g344
tp1152
(dp1153
Vinstall-stem
p1154
Vvmlinuz
p1155
sVsuggests
p1156
Vaboot, fdutils
p1157
ss(Vimage
p1158
g41
NVsh7785lcr
p1159
tp1160
(dp1161
Vcheck-size
p1162
L4194304L
sVrecommends
p1163
Vu-boot-tools
p1164
ss(Vdescription
p1165
g205
NVpowerpc-smp
p1166
tp1167
(dp1168
Vhardware
p1169
Vmultiprocessor 32-bit PowerPC
p1170
ss(Vbuild
p1171
g33
tp1172
(dp1173
Vimage-file
p1174
Vvmlinux
p1175
sVvdso
p1176
I01
ss(Vimage
p1177
g124
NVsparc64
p1178
tp1179
(dp1180
Vconfigs
p1181
(lp1182
Vkernelarch-sparc/config-up
p1183
asstp1184
Rp1185
.