ccopy_reg
_reconstructor
p0
(cdebian_linux.config
ConfigCore
p1
c__builtin__
dict
p2
(dp3
(Vbase
p4
Vpowerpc
p5
tp6
(dp7
Vfeaturesets
p8
(lp9
Vnone
p10
asVkernel-arch
p11
Vpowerpc
p12
ss(Vdescription
p13
Vmips
p14
NV5kc-malta
p15
tp16
(dp17
Vhardware-long
p18
VMIPS Malta boards (64-bit)
p19
sVhardware
p20
VMIPS Malta (64-bit)
p21
ss(Vdescription
p22
Vi386
p23
Vnone
p24
V686-pae
p25
tp26
(dp27
Vparts
p28
(lp29
Vxen
p30
ass(Vbase
p31
Vm68k
p32
g10
tp33
(dp34
Vimplicit-flavour
p35
I01
sVflavours
p36
(lp37
Vm68k
p38
ass(Vdescription
p39
g5
NVpowerpc64
p40
tp41
(dp42
Vhardware
p43
V64-bit PowerPC
p44
ss(Vbase
p45
Vx32
p46
tp47
(dp48
Vfeaturesets
p49
(lp50
sVkernel-arch
p51
Vx86
p52
ss(Vdescription
p53
g5
NVpowerpc-smp
p54
tp55
(dp56
Vhardware
p57
Vmultiprocessor 32-bit PowerPC
p58
ss(Vbuild
p59
g23
NV686-pae
p60
tp61
(dp62
Vdebug-info
p63
I01
ss(g31
Valpha
p64
g10
tp65
(dp66
g35
I01
sg36
(lp67
Valpha-generic
p68
aValpha-smp
p69
ass(Vbase
p70
Varmhf
p71
tp72
(dp73
g8
(lp74
g10
asVkernel-arch
p75
Varm
p76
ss(Vimage
p77
tp78
(dp79
Vinitramfs-generators
p80
(lp81
Vinitramfs-tools
p82
aVinitramfs-fallback
p83
ass(Vbase
p84
g23
g24
tp85
(dp86
Vflavours
p87
(lp88
V686
p89
aV686-pae
p90
ass(Vbuild
p91
Vs390x
p92
NVs390x
p93
tp94
(dp95
Vdebug-info
p96
I01
ss(Vbuild
p97
Vamd64
p98
tp99
(dp100
Vimage-file
p101
Varch/x86/boot/bzImage
p102
sVdebug-info
p103
I01
sVvdso
p104
I01
ss(Vbuild
p105
Varm64
p106
tp107
(dp108
Vimage-file
p109
Varch/arm64/boot/Image
p110
sVdebug-info
p111
I01
sVvdso
p112
I01
ss(Vimage
p113
Varmel
p114
NVmarvell
p115
tp116
(dp117
Vcheck-size
p118
L2097080L
sVrecommends
p119
Vu-boot-tools
p120
sVbreaks
p121
Vflash-kernel (<< 3.57~)
p122
sVcheck-size-with-dtb
p123
I01
ss(Vbuild
p124
g64
tp125
(dp126
Vimage-file
p127
Varch/alpha/boot/vmlinux.gz
p128
ss(Vimage
p129
Vmipsel
p130
tp131
(dp132
Vinstall-stem
p133
Vvmlinux
p134
ss(Vdescription
p135
g130
NV5kc-malta
p136
tp137
(dp138
Vhardware-long
p139
VMIPS Malta boards (64-bit)
p140
sVhardware
p141
VMIPS Malta (64-bit)
p142
ss(Vdescription
p143
g114
NVmarvell
p144
tp145
(dp146
Vhardware-long
p147
VMarvell Kirkwood based systems (SheevaPlug, QNAP TS-119/TS-219, etc)\u000aand Orion 5181, 5182 and 5281 based systems (QNAP TS-109/TS-209, etc)
p148
sVhardware
p149
VMarvell Kirkwood/Orion
p150
ss(Vbase
p151
Vhppa
p152
tp153
(dp154
g8
(lp155
g10
asVkernel-arch
p156
Vparisc
p157
ss(Vimage
p158
g14
tp159
(dp160
Vinstall-stem
p161
Vvmlinux
p162
ss(Vdescription
p163
Vmips64
p164
NV5kc-malta
p165
tp166
(dp167
Vhardware-long
p168
VMIPS Malta boards
p169
sVhardware
p170
VMIPS Malta
p171
ss(Vimage
p172
Vppc64
p173
NVpowerpc64
p174
tp175
(dp176
Vconfigs
p177
(lp178
Vkernelarch-powerpc/config-arch-64
p179
aVkernelarch-powerpc/config-arch-64-be
p180
ass(Vimage
p181
Vmips64el
p182
tp183
(dp184
Vinstall-stem
p185
Vvmlinux
p186
ss(Vdescription
p187
Vsh4
p188
NVsh7785lcr
p189
tp190
(dp191
Vhardware-long
p192
VRenesas SH7785 reference board
p193
sVhardware
p194
Vsh7785lcr
p195
ss(Vbuild
p196
Vppc64el
p197
tp198
(dp199
Vimage-file
p200
Vvmlinux
p201
sVvdso
p202
I01
ss(Vimage
p203
g197
NVpowerpc64le
p204
tp205
(dp206
Vconfigs
p207
(lp208
Vkernelarch-powerpc/config-arch-64
p209
aVkernelarch-powerpc/config-arch-64-le
p210
ass(Vimage
p211
g182
NVocteon
p212
tp213
(dp214
Vconfigs
p215
(lp216
Vkernelarch-mips/config.octeon
p217
ass(Vdescription
p218
g23
NV686-pae
p219
tp220
(dp221
Vparts
p222
(lp223
Vpae
p224
asVhardware-long
p225
VPCs with one or more processors supporting PAE
p226
sVhardware
p227
Vmodern PCs
p228
ss(Vimage
p229
g106
NVarm64
p230
tp231
(dp232
s(g31
g182
g10
tp233
(dp234
g35
I01
sg36
(lp235
V5kc-malta
p236
aVloongson-3
p237
aVocteon
p238
ass(Vrelations
p239
g98
tp240
(dp241
Vheaders%gcc-5
p242
Vlinux-compiler-gcc-5-x86
p243
ss(Vimage
p244
g32
tp245
(dp246
Vsuggests
p247
Vvmelilo, fdutils
p248
sVinstall-stem
p249
Vvmlinuz
p250
ss(Vimage
p251
g5
NVpowerpc64
p252
tp253
(dp254
Vconfigs
p255
(lp256
Vkernelarch-powerpc/config-arch-64
p257
aVkernelarch-powerpc/config-arch-64-be
p258
ass(g31
g5
g10
tp259
(dp260
g35
I01
sg36
(lp261
Vpowerpc
p262
aVpowerpc-smp
p263
aVpowerpc64
p264
ass(Vabi
p265
NVrt
p266
tp267
(dp268
Vignore-changes
p269
(lp270
V*
p271
ass(Vdescription
p272
g64
NValpha-generic
p273
tp274
(dp275
Vhardware-long
p276
VDEC Alpha systems with extended kernel start address (Wildfire, Titan, Marvel)
p277
sVhardware
p278
VAlpha
p279
ss(Vimage
p280
Vsparc64
p281
NVsparc64
p282
tp283
(dp284
Vconfigs
p285
(lp286
Vkernelarch-sparc/config-up
p287
ass(Vdescription
p288
g71
NVarmmp
p289
tp290
(dp291
Vhardware-long
p292
VARMv7 multiplatform kernel. See\u000ahttps://wiki.debian.org/DebianKernel/ARMMP for details of supported\u000aplatforms
p293
sVhardware
p294
VARMv7 multiplatform compatible SoCs
p295
ss(Vdescription
p296
tp297
(dp298
Vpart-long-up
p299
VThis kernel is not suitable for SMP (multi-processor,\u000amulti-core or hyper-threaded) systems.
p300
sVpart-long-xen
p301
VThis kernel also runs on a Xen hypervisor.\u000aIt supports both privileged (dom0) and unprivileged (domU) operation.
p302
ss(Vimage
p303
g23
NV686-pae
p304
tp305
(dp306
Vrecommends
p307
Vlibc6-i686
p308
sVconfigs
p309
(lp310
Vkernelarch-x86/config-arch-32
p311
aVi386/config.686-pae
p312
ass(g31
g197
g10
tp313
(dp314
g35
I01
sg36
(lp315
Vpowerpc64le
p316
ass(Vimage
p317
g130
NV4kc-malta
p318
tp319
(dp320
Vconfigs
p321
(lp322
Vkernelarch-mips/config.4kc-malta
p323
ass(Vimage
p324
g114
tp325
(dp326
Vsuggests
p327
Vfdutils
p328
sVconfigs
p329
(lp330
Vkernelarch-arm/config
p331
aVarmel/config
p332
asVinstall-stem
p333
Vvmlinuz
p334
ss(g31
g281
g10
tp335
(dp336
g35
I01
sg36
(lp337
Vsparc64
p338
aVsparc64-smp
p339
ass(Vbase
p340
Vpowerpcspe
p341
tp342
(dp343
g8
(lp344
g10
asVkernel-arch
p345
Vpowerpc
p346
ss(Vimage
p347
g14
NVocteon
p348
tp349
(dp350
Vconfigs
p351
(lp352
Vkernelarch-mips/config.octeon
p353
ass(Vimage
p354
g130
NV5kc-malta
p355
tp356
(dp357
Vconfigs
p358
(lp359
Vkernelarch-mips/config.5kc-malta
p360
ass(Vimage
p361
g130
NVloongson-2f
p362
tp363
(dp364
Vrecommends
p365
Vlibc6-loongson2f
p366
sVconfigs
p367
(lp368
Vkernelarch-mips/config.loongson-2f
p369
ass(Vbuild
p370
g5
tp371
(dp372
Vimage-file
p373
Vvmlinux
p374
sVvdso
p375
I01
ss(Vdescription
p376
g92
NVs390x
p377
tp378
(dp379
Vhardware
p380
VIBM zSeries
p381
ss(Vbase
p382
g114
tp383
(dp384
g8
(lp385
g10
asVkernel-arch
p386
Varm
p387
ss(Vimage
p388
g98
NVamd64
p389
tp390
(dp391
Vconfigs
p392
(lp393
Vkernelarch-x86/config-arch-64
p394
ass(Vimage
p395
g98
tp396
(dp397
Vconfigs
p398
(lp399
sVinstall-stem
p400
Vvmlinuz
p401
sVbreaks
p402
Vxserver-xorg-input-vmmouse (<< 1:13.0.99)
p403
sVbootloaders
p404
(lp405
Vgrub-pc
p406
aVgrub-efi
p407
aVextlinux
p408
ass(Vbase
p409
g32
tp410
(dp411
g8
(lp412
g10
asVcompiler
p413
Vgcc-4.8
p414
sVkernel-arch
p415
Vm68k
p416
sVcflags
p417
V-ffreestanding
p418
ss(Vdescription
p419
g114
NVversatile
p420
tp421
(dp422
Vhardware-long
p423
VVersatile systems (PB, AB, Qemu)
p424
sVhardware
p425
VVersatile
p426
ss(Vbase
p427
g64
tp428
(dp429
g8
(lp430
g10
asVkernel-arch
p431
Valpha
p432
ss(Vbase
p433
g188
tp434
(dp435
g8
(lp436
g10
asVkernel-arch
p437
Vsh
p438
ss(Vdescription
p439
g64
NValpha-smp
p440
tp441
(dp442
Vhardware-long
p443
VDEC Alpha SMP systems with extended kernel start address (Wildfire, Titan, Marvel)
p444
sVhardware
p445
VAlpha SMP
p446
ss(Vdescription
p447
g5
NVpowerpc
p448
tp449
(dp450
Vhardware
p451
Vuniprocessor 32-bit PowerPC
p452
ss(Vimage
p453
g92
NVs390x
p454
tp455
(dp456
Vconfigs
p457
(lp458
Vkernelarch-s390/config-arch-64
p459
ass(Vimage
p460
g281
NVsparc64-smp
p461
tp462
(dp463
Vconfigs
p464
(lp465
Vkernelarch-sparc/config-smp
p466
ass(Vbase
p467
g98
Vnone
p468
tp469
(dp470
Vflavours
p471
(lp472
Vamd64
p473
ass(Vimage
p474
g71
tp475
(dp476
Vsuggests
p477
Vfdutils
p478
sVconfigs
p479
(lp480
Vkernelarch-arm/config
p481
asVinstall-stem
p482
Vvmlinuz
p483
ss(Vimage
p484
g23
tp485
(dp486
Vconfigs
p487
(lp488
sVinstall-stem
p489
Vvmlinuz
p490
sVbreaks
p491
Vxserver-xorg-input-vmmouse (<< 1:13.0.99)
p492
sVbootloaders
p493
(lp494
Vgrub-pc
p495
aVextlinux
p496
ass(Vbuild
p497
g23
tp498
(dp499
Vimage-file
p500
Varch/x86/boot/bzImage
p501
sVvdso
p502
I01
ss(Vimage
p503
g173
tp504
(dp505
Vsuggests
p506
Vmkvmlinuz
p507
sVconfigs
p508
(lp509
sVinstall-stem
p510
Vvmlinux
p511
ss(Vbase
p512
g173
tp513
(dp514
g8
(lp515
g10
asVkernel-arch
p516
Vpowerpc
p517
ss(Vdescription
p518
g152
NVparisc
p519
tp520
(dp521
Vhardware-long
p522
VHP PA-RISC 32-bit systems with max 4 GB RAM
p523
sVhardware
p524
V32-bit PA-RISC
p525
ss(Vbuild
p526
g188
tp527
(dp528
Vimage-file
p529
Varch/sh/boot/zImage
p530
ss(Vdescription
p531
g98
NVamd64
p532
tp533
(dp534
Vhardware-long
p535
VPCs with AMD64, Intel 64 or VIA Nano processors
p536
sVhardware
p537
V64-bit PCs
p538
ss(Vbase
p539
NVrt
p540
tp541
(dp542
Venabled
p543
I01
ss(Vdescription
p544
g281
NVsparc64-smp
p545
tp546
(dp547
Vhardware
p548
Vmultiprocessor 64-bit UltraSPARC
p549
ss(Vdescription
p550
g23
NV686
p551
tp552
(dp553
Vhardware-long
p554
VPCs with one or more processors not supporting PAE
p555
sVhardware
p556
Volder PCs
p557
ss(Vdescription
p558
g152
NVparisc64-smp
p559
tp560
(dp561
Vhardware-long
p562
VHP PA-RISC 64-bit SMP systems with support for more than 4 GB RAM
p563
sVhardware
p564
Vmultiprocessor 64-bit PA-RISC
p565
ss(Vdescription
p566
g98
g468
Vamd64
p567
tp568
(dp569
Vparts
p570
(lp571
Vxen
p572
ass(Vimage
p573
g130
NVloongson-2e
p574
tp575
(dp576
Vconfigs
p577
(lp578
Vkernelarch-mips/config.loongson-2e
p579
ass(g31
g114
g10
tp580
(dp581
g35
I01
sg36
(lp582
Vmarvell
p583
aVversatile
p584
ass(Vrelations
p585
g152
tp586
(dp587
Vgcc-4.9
p588
Vgcc-4.9 <!stage1>, binutils-hppa64 <!stage1>, gcc-4.9-hppa64 <!stage1>
p589
ss(Vbase
p590
g182
tp591
(dp592
g8
(lp593
g10
asVkernel-arch
p594
Vmips
p595
ss(Vdescription
p596
g23
tp597
(dp598
Vpart-long-pae
p599
VThis kernel requires PAE (Physical Address Extension).\u000aThis feature is supported by the Intel Pentium Pro/II/III/4/4M/D, Xeon,\u000aCore and Atom; AMD Geode NX, Athlon (K7), Duron, Opteron, Sempron,\u000aTurion or Phenom; Transmeta Efficeon; VIA C7; and some other processors.
p600
ss(Vdescription
p601
g182
NVloongson-3
p602
tp603
(dp604
Vhardware-long
p605
VLoongson 3A or 3B based systems (e.g. from Loongson or Lemote)
p606
sVhardware
p607
VLoongson 3A/3B
p608
ss(Vversion
p609
tp610
(dp611
Vabiname_base
p612
V4.4.0
p613
sVabiname
p614
V4.4.0-1
p615
sVupstream
p616
V4.4
p617
sVsource
p618
V4.4.2-3+wmf1
p619
ss(Vdescription
p620
g32
NVm68k
p621
tp622
(dp623
Vhardware
p624
VMotorola MC68020+ family
p625
ss(g31
g92
g10
tp626
(dp627
g35
I01
sg36
(lp628
Vs390x
p629
ass(Vbuild
p630
g281
tp631
(dp632
Vimage-file
p633
Varch/sparc/boot/zImage
p634
ss(g31
g188
g10
tp635
(dp636
g35
I01
sg36
(lp637
Vsh7751r
p638
aVsh7785lcr
p639
ass(Vimage
p640
g64
tp641
(dp642
Vsuggests
p643
Vaboot, fdutils
p644
sVinstall-stem
p645
Vvmlinuz
p646
ss(Vrelations
p647
g23
tp648
(dp649
Vheaders%gcc-5
p650
Vlinux-compiler-gcc-5-x86
p651
ss(g31
g173
g10
tp652
(dp653
g35
I01
sg36
(lp654
Vpowerpc64
p655
ass(Vbase
p656
g152
NVparisc64-smp
p657
tp658
(dp659
Voverride-host-type
p660
Vhppa64-linux-gnu
p661
sVcflags
p662
V-fno-cse-follow-jumps
p663
ss(Vdescription
p664
g130
NVloongson-2e
p665
tp666
(dp667
Vhardware-long
p668
VLemote Loongson 2E systems
p669
sVhardware
p670
VLoongson 2E
p671
ss(Vbase
p672
g130
tp673
(dp674
g8
(lp675
g10
asVkernel-arch
p676
Vmips
p677
ss(Vbase
p678
Vor1k
p679
tp680
(dp681
Vfeaturesets
p682
(lp683
sVkernel-arch
p684
Vopenrisc
p685
ss(Vdescription
p686
g14
NV4kc-malta
p687
tp688
(dp689
Vhardware-long
p690
VMIPS Malta boards
p691
sVhardware
p692
VMIPS Malta
p693
ss(Vdescription
p694
g71
NVarmmp-lpae
p695
tp696
(dp697
Vhardware-long
p698
VARMv7 multiplatform kernel supporting LPAE. See\u000ahttps://wiki.debian.org/DebianKernel/ARMMP for details of supported\u000aplatforms.
p699
sVhardware
p700
VARMv7 multiplatform compatible SoCs supporting LPAE
p701
ss(Vdescription
p702
g197
NVpowerpc64le
p703
tp704
(dp705
Vhardware
p706
VLittle-endian 64-bit PowerPC
p707
ss(Vimage
p708
g106
tp709
(dp710
Vinstall-stem
p711
Vvmlinuz
p712
ss(Vbuild
p713
g92
tp714
(dp715
Vimage-file
p716
Varch/s390/boot/image
p717
sVvdso
p718
I01
ss(Vbuild
p719
g14
tp720
(dp721
Vimage-file
p722
Vvmlinux
p723
ss(g31
g14
g10
tp724
(dp725
g35
I01
sg36
(lp726
V4kc-malta
p727
aV5kc-malta
p728
aVocteon
p729
ass(Vdescription
p730
g188
NVsh7751r
p731
tp732
(dp733
Vhardware-long
p734
VRenesas SH7751R R2D plus board
p735
sVhardware
p736
Vsh7751r
p737
ss(g31
g71
g10
tp738
(dp739
g35
I01
sg36
(lp740
Varmmp
p741
aVarmmp-lpae
p742
ass(Vbase
p743
tp744
(dp745
Vfeaturesets
p746
(lp747
Vnone
p748
aVrt
p749
asVcompiler
p750
Vgcc-4.9
p751
sVarches
p752
(lp753
Valpha
p754
aVamd64
p755
aVarm64
p756
aVarmel
p757
aVarmhf
p758
aVhppa
p759
aVi386
p760
aVm68k
p761
aVmips
p762
aVmipsel
p763
aVmips64
p764
aVmips64el
p765
aVor1k
p766
aVpowerpc
p767
aVpowerpcspe
p768
aVppc64
p769
aVppc64el
p770
aVs390
p771
aVs390x
p772
aVsh4
p773
aVsparc
p774
aVsparc64
p775
aVx32
p776
ass(Vbuild
p777
g341
tp778
(dp779
Vimage-file
p780
Vvmlinux
p781
sVvdso
p782
I01
ss(Vrelations
p783
g71
tp784
(dp785
Vheaders%gcc-4.9
p786
Vlinux-compiler-gcc-4.9-arm
p787
ss(Vimage
p788
g130
NVloongson-3
p789
tp790
(dp791
Vconfigs
p792
(lp793
Vkernelarch-mips/config.loongson-3
p794
ass(g31
g341
g10
tp795
(dp796
g35
I01
sg36
(lp797
Vpowerpcspe
p798
ass(Vdescription
p799
g106
NVarm64
p800
tp801
(dp802
Vhardware
p803
V64-bit ARMv8 machines
p804
ss(Vbase
p805
g23
tp806
(dp807
Vfeaturesets
p808
(lp809
Vnone
p810
asVcompiler
p811
Vgcc-4.9
p812
sVkernel-arch
p813
Vx86
p814
ss(Vrelations
p815
g114
tp816
(dp817
Vheaders%gcc-4.9
p818
Vlinux-compiler-gcc-4.9-arm
p819
ss(Vrelations
p820
g92
tp821
(dp822
Vheaders%gcc-4.9
p823
Vlinux-compiler-gcc-4.9-s390
p824
ss(Vimage
p825
g14
NV4kc-malta
p826
tp827
(dp828
Vconfigs
p829
(lp830
Vkernelarch-mips/config.4kc-malta
p831
ass(Vbase
p832
g14
tp833
(dp834
g8
(lp835
g10
asVkernel-arch
p836
Vmips
p837
ss(Vimage
p838
g164
NVocteon
p839
tp840
(dp841
Vconfigs
p842
(lp843
Vkernelarch-mips/config.octeon
p844
ass(Vbase
p845
Vs390
p846
tp847
(dp848
Vfeaturesets
p849
(lp850
sVkernel-arch
p851
Vs390
p852
ss(Vimage
p853
g5
NVpowerpc-smp
p854
tp855
(dp856
Vconfigs
p857
(lp858
Vpowerpc/config.powerpc
p859
aVpowerpc/config.powerpc-smp
p860
ass(Vdescription
p861
Ng266
tp862
(dp863
Vpart-long-rt
p864
VThis kernel includes the PREEMPT_RT realtime patch set.
p865
sVparts
p866
(lp867
Vrt
p868
asVpart-short-rt
p869
VPREEMPT_RT
p870
ss(Vdescription
p871
g182
NVocteon
p872
tp873
(dp874
Vhardware-long
p875
VCavium Networks Octeon
p876
sVhardware
p877
VOcteon
p878
ss(Vimage
p879
g182
NV5kc-malta
p880
tp881
(dp882
Vconfigs
p883
(lp884
Vkernelarch-mips/config.5kc-malta
p885
ass(Vimage
p886
g164
NV5kc-malta
p887
tp888
(dp889
Vconfigs
p890
(lp891
Vkernelarch-mips/config.5kc-malta
p892
ass(Vbuild
p893
g152
tp894
(dp895
Vimage-file
p896
Vvmlinux
p897
ss(Vdescription
p898
g130
NVloongson-2f
p899
tp900
(dp901
Vhardware-long
p902
VLemote Loongson 2F systems
p903
sVhardware
p904
VLoongson 2F
p905
ss(Vabi
p906
tp907
(dp908
Vabiname
p909
V1
p910
ss(Vimage
p911
g152
tp912
(dp913
Vsuggests
p914
Vpalo
p915
sVinstall-stem
p916
Vvmlinux
p917
ss(Vrelations
p918
tp919
(dp920
Vgcc-4.8
p921
Vgcc-4.8
p922
sVgcc-5
p923
Vgcc-5
p924
sVinitramfs-fallback
p925
Vlinux-initramfs-tool
p926
sVinitramfs-tools
p927
Vinitramfs-tools (>= 0.110~)
p928
sVgcc-4.9
p929
Vgcc-4.9
p930
ss(Vimage
p931
g188
tp932
(dp933
Vsuggests
p934
Vfdutils
p935
sVinstall-stem
p936
Vvmlinuz
p937
ss(g31
g164
g10
tp938
(dp939
g35
I01
sg36
(lp940
V5kc-malta
p941
aVocteon
p942
ass(Vbase
p943
g197
tp944
(dp945
g8
(lp946
g10
asVkernel-arch
p947
Vpowerpc
p948
ss(Vbase
p949
Vsparc
p950
tp951
(dp952
Vfeaturesets
p953
(lp954
sVkernel-arch
p955
Vsparc
p956
ss(g31
g152
g10
tp957
(dp958
g35
I01
sg36
(lp959
Vparisc
p960
aVparisc64-smp
p961
ass(Vbuild
p962
g114
tp963
(dp964
Vimage-file
p965
Varch/arm/boot/zImage
p966
ss(Vdescription
p967
g341
tp968
(dp969
Vhardware
p970
V32-bit PowerPC with SPE (instead of AltiVec) with SMP support
p971
ss(Vbuild
p972
g164
tp973
(dp974
Vimage-file
p975
Vvmlinux
p976
ss(Vbase
p977
g92
tp978
(dp979
g8
(lp980
g10
asVkernel-arch
p981
Vs390
p982
ss(Vbuild
p983
g130
tp984
(dp985
Vimage-file
p986
Vvmlinux
p987
ss(Vdescription
p988
g173
NVpowerpc64
p989
tp990
(dp991
Vhardware
p992
V64-bit PowerPC
p993
ss(Vimage
p994
g5
tp995
(dp996
Vsuggests
p997
Vmkvmlinuz
p998
sVconfigs
p999
(lp1000
sVinstall-stem
p1001
Vvmlinux
p1002
ss(Vimage
p1003
g188
NVsh7785lcr
p1004
tp1005
(dp1006
Vcheck-size
p1007
L4194304L
sVrecommends
p1008
Vu-boot-tools
p1009
ss(Vimage
p1010
g281
tp1011
(dp1012
Vsuggests
p1013
Vsilo, fdutils
p1014
sVconfigs
p1015
(lp1016
sVinstall-stem
p1017
Vvmlinuz
p1018
ss(Vbase
p1019
g281
tp1020
(dp1021
g8
(lp1022
g10
asVkernel-arch
p1023
Vsparc
p1024
ss(Vbase
p1025
g106
tp1026
(dp1027
Vfeaturesets
p1028
(lp1029
Vnone
p1030
asVkernel-arch
p1031
Varm64
p1032
ss(Vbase
p1033
g164
tp1034
(dp1035
g8
(lp1036
g10
asVkernel-arch
p1037
Vmips
p1038
ss(Vbase
p1039
g98
tp1040
(dp1041
Vfeaturesets
p1042
(lp1043
Vnone
p1044
asVcompiler
p1045
Vgcc-4.9
p1046
sVkernel-arch
p1047
Vx86
p1048
ss(Vbuild
p1049
g182
tp1050
(dp1051
Vimage-file
p1052
Vvmlinux
p1053
ss(Vdescription
p1054
g130
NV4kc-malta
p1055
tp1056
(dp1057
Vhardware-long
p1058
VMIPS Malta boards
p1059
sVhardware
p1060
VMIPS Malta
p1061
ss(Vimage
p1062
g14
NV5kc-malta
p1063
tp1064
(dp1065
Vconfigs
p1066
(lp1067
Vkernelarch-mips/config.5kc-malta
p1068
ass(Vimage
p1069
g71
NVarmmp-lpae
p1070
tp1071
(dp1072
Vconfigs
p1073
(lp1074
Varmhf/config.armmp
p1075
aVarmhf/config.lpae
p1076
ass(Vimage
p1077
g23
NV686
p1078
tp1079
(dp1080
Vrecommends
p1081
Vlibc6-i686
p1082
sVconfigs
p1083
(lp1084
Vkernelarch-x86/config-arch-32
p1085
aVi386/config.686
p1086
ass(Vimage
p1087
g182
NVloongson-3
p1088
tp1089
(dp1090
Vconfigs
p1091
(lp1092
Vkernelarch-mips/config.loongson-3
p1093
ass(Vimage
p1094
g197
tp1095
(dp1096
Vsuggests
p1097
Vmkvmlinuz
p1098
sVconfigs
p1099
(lp1100
sVinstall-stem
p1101
Vvmlinux
p1102
ss(Vbuild
p1103
g71
tp1104
(dp1105
Vimage-file
p1106
Varch/arm/boot/zImage
p1107
sVvdso
p1108
I01
ss(Vimage
p1109
g92
tp1110
(dp1111
Vconfigs
p1112
(lp1113
sVinstall-stem
p1114
Vvmlinuz
p1115
sVbootloaders
p1116
(lp1117
Vs390-tools
p1118
ass(g31
g130
g10
tp1119
(dp1120
g35
I01
sg36
(lp1121
V4kc-malta
p1122
aV5kc-malta
p1123
aVloongson-2e
p1124
aVloongson-2f
p1125
aVloongson-3
p1126
ass(Vdescription
p1127
g182
NV5kc-malta
p1128
tp1129
(dp1130
Vhardware-long
p1131
VMIPS Malta boards
p1132
sVhardware
p1133
VMIPS Malta
p1134
ss(Vbuild
p1135
g173
tp1136
(dp1137
Vimage-file
p1138
Vvmlinux
p1139
sVvdso
p1140
I01
ss(Vimage
p1141
g341
tp1142
(dp1143
Vsuggests
p1144
Vmkvmlinuz
p1145
sVinstall-stem
p1146
Vvmlinux
p1147
ss(Vbase
p1148
g106
Vnone
p1149
tp1150
(dp1151
Vflavours
p1152
(lp1153
Varm64
p1154
ass(Vbuild
p1155
g32
tp1156
(dp1157
Vimage-file
p1158
Vvmlinux.gz
p1159
ss(Vdescription
p1160
g281
NVsparc64
p1161
tp1162
(dp1163
Vhardware
p1164
Vuniprocessor 64-bit UltraSPARC
p1165
ss(Vdescription
p1166
g14
NVocteon
p1167
tp1168
(dp1169
Vhardware-long
p1170
VCavium Networks Octeon
p1171
sVhardware
p1172
VOcteon
p1173
ss(Vdescription
p1174
g164
NVocteon
p1175
tp1176
(dp1177
Vhardware-long
p1178
VCavium Networks Octeon
p1179
sVhardware
p1180
VOcteon
p1181
ss(Vimage
p1182
g164
tp1183
(dp1184
Vinstall-stem
p1185
Vvmlinux
p1186
ss(Vdescription
p1187
g130
NVloongson-3
p1188
tp1189
(dp1190
Vhardware-long
p1191
VLoongson 3A or 3B based systems (e.g. from Loongson or Lemote)
p1192
sVhardware
p1193
VLoongson 3A/3B
p1194
ss(Vxen
p1195
g98
g468
Vamd64
p1196
tp1197
(dp1198
Vflavours
p1199
(lp1200
Vamd64
p1201
asstp1202
Rp1203
.