ccopy_reg
_reconstructor
p0
(cdebian_linux.config
ConfigCore
p1
c__builtin__
dict
p2
(dp3
(Vdescription
p4
Vmips
p5
NV4kc-malta
p6
tp7
(dp8
Vhardware
p9
VMIPS Malta
p10
sVhardware-long
p11
VMIPS Malta boards
p12
ss(Vimage
p13
Vmipsel
p14
NVloongson-3
p15
tp16
(dp17
Vconfigs
p18
(lp19
Vkernelarch-mips/config.loongson-3
p20
ass(Vbuild
p21
Vm68k
p22
tp23
(dp24
Vimage-file
p25
Vvmlinux.gz
p26
ss(Vdescription
p27
g22
NVm68k
p28
tp29
(dp30
Vhardware
p31
VMotorola MC68020+ family
p32
ss(Vimage
p33
Vamd64
p34
NVamd64
p35
tp36
(dp37
Vconfigs
p38
(lp39
Vkernelarch-x86/config-arch-64
p40
ass(Vbuild
p41
Valpha
p42
tp43
(dp44
Vimage-file
p45
Varch/alpha/boot/vmlinux.gz
p46
ss(Vimage
p47
Vsh4
p48
tp49
(dp50
Vinstall-stem
p51
Vvmlinuz
p52
sVsuggests
p53
Vfdutils
p54
ss(Vbase
p55
Varmel
p56
tp57
(dp58
Vkernel-arch
p59
Varm
p60
sVfeaturesets
p61
(lp62
Vnone
p63
ass(Vbase
p64
Vi386
p65
tp66
(dp67
Vkernel-arch
p68
Vx86
p69
sVfeaturesets
p70
(lp71
Vnone
p72
asVcompiler
p73
Vgcc-4.9
p74
ss(Vdescription
p75
g14
NV5kc-malta
p76
tp77
(dp78
Vhardware
p79
VMIPS Malta (64-bit)
p80
sVhardware-long
p81
VMIPS Malta boards (64-bit)
p82
ss(Vimage
p83
Vmips64
p84
NVocteon
p85
tp86
(dp87
Vconfigs
p88
(lp89
Vkernelarch-mips/config.octeon
p90
ass(Vimage
p91
g56
NVmarvell
p92
tp93
(dp94
Vcheck-size
p95
L2097080L
sVbreaks
p96
Vflash-kernel (<< 3.57~)
p97
sVcheck-size-with-dtb
p98
I01
sVrecommends
p99
Vu-boot-tools
p100
ss(Vdescription
p101
Vpowerpc
p102
NVpowerpc
p103
tp104
(dp105
Vhardware
p106
Vuniprocessor 32-bit PowerPC
p107
ss(Vbase
p108
g102
tp109
(dp110
Vkernel-arch
p111
Vpowerpc
p112
sg61
(lp113
g63
ass(Vimage
p114
Vs390x
p115
tp116
(dp117
Vinstall-stem
p118
Vvmlinuz
p119
sVbootloaders
p120
(lp121
Vs390-tools
p122
asVconfigs
p123
(lp124
ss(Vdescription
p125
g5
NV5kc-malta
p126
tp127
(dp128
Vhardware
p129
VMIPS Malta (64-bit)
p130
sVhardware-long
p131
VMIPS Malta boards (64-bit)
p132
ss(Vimage
p133
Varmhf
p134
tp135
(dp136
Vinstall-stem
p137
Vvmlinuz
p138
sVconfigs
p139
(lp140
Vkernelarch-arm/config
p141
asVsuggests
p142
Vfdutils
p143
ss(Vdescription
p144
g14
NV4kc-malta
p145
tp146
(dp147
Vhardware
p148
VMIPS Malta
p149
sVhardware-long
p150
VMIPS Malta boards
p151
ss(Vbuild
p152
Vppc64el
p153
tp154
(dp155
Vvdso
p156
I01
sVimage-file
p157
Vvmlinux
p158
ss(Vbase
p159
g84
tp160
(dp161
Vkernel-arch
p162
Vmips
p163
sg61
(lp164
g63
ass(Vdescription
p165
Vmips64el
p166
NV5kc-malta
p167
tp168
(dp169
Vhardware
p170
VMIPS Malta
p171
sVhardware-long
p172
VMIPS Malta boards
p173
ss(Vimage
p174
g42
tp175
(dp176
Vinstall-stem
p177
Vvmlinuz
p178
sVsuggests
p179
Vaboot, fdutils
p180
ss(Vimage
p181
g65
NV686
p182
tp183
(dp184
Vconfigs
p185
(lp186
Vkernelarch-x86/config-arch-32
p187
aVi386/config.686
p188
asVrecommends
p189
Vlibc6-i686
p190
ss(Vimage
p191
g14
NVloongson-2f
p192
tp193
(dp194
Vconfigs
p195
(lp196
Vkernelarch-mips/config.loongson-2f
p197
asVrecommends
p198
Vlibc6-loongson2f
p199
ss(Vrelations
p200
tp201
(dp202
Vgcc-5
p203
Vgcc-5
p204
sVgcc-4.8
p205
Vgcc-4.8
p206
sVgcc-4.9
p207
Vgcc-4.9
p208
sVinitramfs-fallback
p209
Vlinux-initramfs-tool
p210
sVinitramfs-tools
p211
Vinitramfs-tools (>= 0.110~)
p212
ss(Vbase
p213
Vpowerpcspe
p214
g63
tp215
(dp216
Vflavours
p217
(lp218
Vpowerpcspe
p219
asVimplicit-flavour
p220
I01
ss(Vbase
p221
Vhppa
p222
tp223
(dp224
Vkernel-arch
p225
Vparisc
p226
sg61
(lp227
g63
ass(g213
g14
g63
tp228
(dp229
g217
(lp230
V4kc-malta
p231
aV5kc-malta
p232
aVloongson-2e
p233
aVloongson-2f
p234
aVloongson-3
p235
asg220
I01
ss(Vrelations
p236
g34
tp237
(dp238
Vheaders%gcc-5
p239
Vlinux-compiler-gcc-5-x86
p240
ss(Vdescription
p241
g14
NVloongson-2e
p242
tp243
(dp244
Vhardware
p245
VLoongson 2E
p246
sVhardware-long
p247
VLemote Loongson 2E systems
p248
ss(Vbase
p249
Varm64
p250
tp251
(dp252
Vkernel-arch
p253
Varm64
p254
sVfeaturesets
p255
(lp256
Vnone
p257
ass(Vdescription
p258
g222
NVparisc
p259
tp260
(dp261
Vhardware
p262
V32-bit PA-RISC
p263
sVhardware-long
p264
VHP PA-RISC 32-bit systems with max 4 GB RAM
p265
ss(Vdescription
p266
g102
NVpowerpc64
p267
tp268
(dp269
Vhardware
p270
V64-bit PowerPC
p271
ss(Vbase
p272
g48
tp273
(dp274
Vkernel-arch
p275
Vsh
p276
sg61
(lp277
g63
ass(g213
Vsparc64
p278
g63
tp279
(dp280
g217
(lp281
Vsparc64
p282
aVsparc64-smp
p283
asg220
I01
ss(Vdescription
p284
g278
NVsparc64
p285
tp286
(dp287
Vhardware
p288
Vuniprocessor 64-bit UltraSPARC
p289
ss(Vdescription
p290
g48
NVsh7751r
p291
tp292
(dp293
Vhardware
p294
Vsh7751r
p295
sVhardware-long
p296
VRenesas SH7751R R2D plus board
p297
ss(Vbase
p298
Vppc64
p299
tp300
(dp301
Vkernel-arch
p302
Vpowerpc
p303
sg61
(lp304
g63
ass(Vbuild
p305
g299
tp306
(dp307
Vvdso
p308
I01
sVimage-file
p309
Vvmlinux
p310
ss(Vimage
p311
g56
tp312
(dp313
Vinstall-stem
p314
Vvmlinuz
p315
sVconfigs
p316
(lp317
Vkernelarch-arm/config
p318
aVarmel/config
p319
asVsuggests
p320
Vfdutils
p321
ss(Vdescription
p322
g134
NVarmmp-lpae
p323
tp324
(dp325
Vhardware
p326
VARMv7 multiplatform compatible SoCs supporting LPAE
p327
sVhardware-long
p328
VARMv7 multiplatform kernel supporting LPAE. See\u000ahttps://wiki.debian.org/DebianKernel/ARMMP for details of supported\u000aplatforms.
p329
ss(Vdescription
p330
g65
NV686-pae
p331
tp332
(dp333
Vhardware
p334
Vmodern PCs
p335
sVhardware-long
p336
VPCs with one or more processors supporting PAE
p337
sVparts
p338
(lp339
Vpae
p340
ass(Vimage
p341
g102
NVpowerpc-smp
p342
tp343
(dp344
Vconfigs
p345
(lp346
Vpowerpc/config.powerpc
p347
aVpowerpc/config.powerpc-smp
p348
ass(Vrelations
p349
g222
tp350
(dp351
Vgcc-4.9
p352
Vgcc-4.9 <!stage1>, binutils-hppa64 <!stage1>, gcc-4.9-hppa64 <!stage1>
p353
ss(Vversion
p354
tp355
(dp356
Vsource
p357
V4.4.2-3+wmf7
p358
sVabiname_base
p359
V4.4.0
p360
sVupstream
p361
V4.4
p362
sVabiname
p363
V4.4.0-3
p364
ss(Vbuild
p365
g134
tp366
(dp367
Vvdso
p368
I01
sVimage-file
p369
Varch/arm/boot/zImage
p370
ss(Vbuild
p371
g5
tp372
(dp373
Vimage-file
p374
Vvmlinux
p375
ss(g213
g134
g63
tp376
(dp377
g217
(lp378
Varmmp
p379
aVarmmp-lpae
p380
asg220
I01
ss(Vimage
p381
g153
tp382
(dp383
Vinstall-stem
p384
Vvmlinux
p385
sVsuggests
p386
Vmkvmlinuz
p387
sVconfigs
p388
(lp389
ss(Vbase
p390
g250
Vnone
p391
tp392
(dp393
Vflavours
p394
(lp395
Varm64
p396
ass(Vimage
p397
g250
NVarm64
p398
tp399
(dp400
s(Vimage
p401
g153
NVpowerpc64le
p402
tp403
(dp404
Vconfigs
p405
(lp406
Vkernelarch-powerpc/config-arch-64
p407
aVkernelarch-powerpc/config-arch-64-le
p408
ass(Vbase
p409
g153
tp410
(dp411
Vkernel-arch
p412
Vpowerpc
p413
sg61
(lp414
g63
ass(Vbuild
p415
g48
tp416
(dp417
Vimage-file
p418
Varch/sh/boot/zImage
p419
ss(Vimage
p420
g102
NVpowerpc64
p421
tp422
(dp423
Vconfigs
p424
(lp425
Vkernelarch-powerpc/config-arch-64
p426
aVkernelarch-powerpc/config-arch-64-be
p427
ass(Vimage
p428
g299
NVpowerpc64
p429
tp430
(dp431
Vconfigs
p432
(lp433
Vkernelarch-powerpc/config-arch-64
p434
aVkernelarch-powerpc/config-arch-64-be
p435
ass(Vimage
p436
g115
NVs390x
p437
tp438
(dp439
Vconfigs
p440
(lp441
Vkernelarch-s390/config-arch-64
p442
ass(g213
g48
g63
tp443
(dp444
g217
(lp445
Vsh7751r
p446
aVsh7785lcr
p447
asg220
I01
ss(Vrelations
p448
g65
tp449
(dp450
Vheaders%gcc-5
p451
Vlinux-compiler-gcc-5-x86
p452
ss(g213
g5
g63
tp453
(dp454
g217
(lp455
V4kc-malta
p456
aV5kc-malta
p457
aVocteon
p458
asg220
I01
ss(Vimage
p459
g134
NVarmmp-lpae
p460
tp461
(dp462
Vconfigs
p463
(lp464
Varmhf/config.armmp
p465
aVarmhf/config.lpae
p466
ass(Vimage
p467
g166
tp468
(dp469
Vinstall-stem
p470
Vvmlinux
p471
ss(Vdescription
p472
g102
NVpowerpc-smp
p473
tp474
(dp475
Vhardware
p476
Vmultiprocessor 32-bit PowerPC
p477
ss(g213
g166
g63
tp478
(dp479
g217
(lp480
V5kc-malta
p481
aVloongson-3
p482
aVocteon
p483
asg220
I01
ss(Vimage
p484
g34
tp485
(dp486
Vinstall-stem
p487
Vvmlinuz
p488
sVbootloaders
p489
(lp490
Vgrub-pc
p491
aVgrub-efi
p492
aVextlinux
p493
asVbreaks
p494
Vxserver-xorg-input-vmmouse (<< 1:13.0.99)
p495
sVconfigs
p496
(lp497
ss(Vbuild
p498
g166
tp499
(dp500
Vimage-file
p501
Vvmlinux
p502
ss(Vbuild
p503
g65
NV686-pae
p504
tp505
(dp506
Vdebug-info
p507
I01
ss(Vimage
p508
g278
NVsparc64
p509
tp510
(dp511
Vconfigs
p512
(lp513
Vkernelarch-sparc/config-up
p514
ass(Vdescription
p515
g14
NVloongson-3
p516
tp517
(dp518
Vhardware
p519
VLoongson 3A/3B
p520
sVhardware-long
p521
VLoongson 3A or 3B based systems (e.g. from Loongson or Lemote)
p522
ss(Vbase
p523
g34
Vnone
p524
tp525
(dp526
Vflavours
p527
(lp528
Vamd64
p529
ass(Vbuild
p530
g278
tp531
(dp532
Vimage-file
p533
Varch/sparc/boot/zImage
p534
ss(Vbase
p535
g134
tp536
(dp537
Vkernel-arch
p538
Varm
p539
sg61
(lp540
g63
ass(Vimage
p541
g5
NV5kc-malta
p542
tp543
(dp544
Vconfigs
p545
(lp546
Vkernelarch-mips/config.5kc-malta
p547
ass(Vrelations
p548
g134
tp549
(dp550
Vheaders%gcc-4.9
p551
Vlinux-compiler-gcc-4.9-arm
p552
ss(Vimage
p553
g102
tp554
(dp555
Vinstall-stem
p556
Vvmlinux
p557
sVsuggests
p558
Vmkvmlinuz
p559
sVconfigs
p560
(lp561
ss(Vrelations
p562
g56
tp563
(dp564
Vheaders%gcc-4.9
p565
Vlinux-compiler-gcc-4.9-arm
p566
ss(Vbase
p567
g42
tp568
(dp569
Vkernel-arch
p570
Valpha
p571
sg61
(lp572
g63
ass(Vimage
p573
g166
NVocteon
p574
tp575
(dp576
Vconfigs
p577
(lp578
Vkernelarch-mips/config.octeon
p579
ass(Vbase
p580
NVrt
p581
tp582
(dp583
Venabled
p584
I00
ss(Vbuild
p585
g34
tp586
(dp587
Vvdso
p588
I01
sVimage-file
p589
Varch/x86/boot/bzImage
p590
sVdebug-info
p591
I01
ss(Vimage
p592
g14
NV5kc-malta
p593
tp594
(dp595
Vconfigs
p596
(lp597
Vkernelarch-mips/config.5kc-malta
p598
ass(Vbase
p599
g222
NVparisc64-smp
p600
tp601
(dp602
Vcflags
p603
V-fno-cse-follow-jumps
p604
sVoverride-host-type
p605
Vhppa64-linux-gnu
p606
ss(Vdescription
p607
g222
NVparisc64-smp
p608
tp609
(dp610
Vhardware
p611
Vmultiprocessor 64-bit PA-RISC
p612
sVhardware-long
p613
VHP PA-RISC 64-bit SMP systems with support for more than 4 GB RAM
p614
ss(Vimage
p615
g222
tp616
(dp617
Vinstall-stem
p618
Vvmlinux
p619
sVsuggests
p620
Vpalo
p621
ss(Vbase
p622
g5
tp623
(dp624
Vkernel-arch
p625
Vmips
p626
sg61
(lp627
g63
ass(Vdescription
p628
g134
NVarmmp
p629
tp630
(dp631
Vhardware
p632
VARMv7 multiplatform compatible SoCs
p633
sVhardware-long
p634
VARMv7 multiplatform kernel. See\u000ahttps://wiki.debian.org/DebianKernel/ARMMP for details of supported\u000aplatforms
p635
ss(Vimage
p636
g84
NV5kc-malta
p637
tp638
(dp639
Vconfigs
p640
(lp641
Vkernelarch-mips/config.5kc-malta
p642
ass(Vdescription
p643
tp644
(dp645
Vpart-long-xen
p646
VThis kernel also runs on a Xen hypervisor.\u000aIt supports both privileged (dom0) and unprivileged (domU) operation.
p647
sVpart-long-up
p648
VThis kernel is not suitable for SMP (multi-processor,\u000amulti-core or hyper-threaded) systems.
p649
ss(Vbuild
p650
g214
tp651
(dp652
Vvdso
p653
I01
sVimage-file
p654
Vvmlinux
p655
ss(Vabi
p656
tp657
(dp658
Vabiname
p659
V3
p660
ss(g213
g84
g63
tp661
(dp662
g217
(lp663
V5kc-malta
p664
aVocteon
p665
asg220
I01
ss(Vbase
p666
tp667
(dp668
Vcompiler
p669
Vgcc-4.9
p670
sVarches
p671
(lp672
Valpha
p673
aVamd64
p674
aVarm64
p675
aVarmel
p676
aVarmhf
p677
aVhppa
p678
aVi386
p679
aVm68k
p680
aVmips
p681
aVmipsel
p682
aVmips64
p683
aVmips64el
p684
aVor1k
p685
aVpowerpc
p686
aVpowerpcspe
p687
aVppc64
p688
aVppc64el
p689
aVs390
p690
aVs390x
p691
aVsh4
p692
aVsparc
p693
aVsparc64
p694
aVx32
p695
asVfeaturesets
p696
(lp697
Vnone
p698
ass(Vbuild
p699
g84
tp700
(dp701
Vimage-file
p702
Vvmlinux
p703
ss(Vdescription
p704
g5
NVocteon
p705
tp706
(dp707
Vhardware
p708
VOcteon
p709
sVhardware-long
p710
VCavium Networks Octeon
p711
ss(Vimage
p712
g65
tp713
(dp714
Vinstall-stem
p715
Vvmlinuz
p716
sVbootloaders
p717
(lp718
Vgrub-pc
p719
aVextlinux
p720
asVbreaks
p721
Vxserver-xorg-input-vmmouse (<< 1:13.0.99)
p722
sVconfigs
p723
(lp724
ss(Vbase
p725
Vx32
p726
tp727
(dp728
Vkernel-arch
p729
Vx86
p730
sVfeaturesets
p731
(lp732
ss(Vbase
p733
g278
tp734
(dp735
Vkernel-arch
p736
Vsparc
p737
sg61
(lp738
g63
ass(g213
g153
g63
tp739
(dp740
g217
(lp741
Vpowerpc64le
p742
asg220
I01
ss(Vdescription
p743
g84
NV5kc-malta
p744
tp745
(dp746
Vhardware
p747
VMIPS Malta
p748
sVhardware-long
p749
VMIPS Malta boards
p750
ss(Vimage
p751
g14
NV4kc-malta
p752
tp753
(dp754
Vconfigs
p755
(lp756
Vkernelarch-mips/config.4kc-malta
p757
ass(Vimage
p758
g14
tp759
(dp760
Vinstall-stem
p761
Vvmlinux
p762
ss(Vdescription
p763
g42
NValpha-smp
p764
tp765
(dp766
Vhardware
p767
VAlpha SMP
p768
sVhardware-long
p769
VDEC Alpha SMP systems with extended kernel start address (Wildfire, Titan, Marvel)
p770
ss(Vimage
p771
g22
tp772
(dp773
Vinstall-stem
p774
Vvmlinuz
p775
sVsuggests
p776
Vvmelilo, fdutils
p777
ss(Vimage
p778
g5
tp779
(dp780
Vinstall-stem
p781
Vvmlinux
p782
ss(Vbase
p783
g14
tp784
(dp785
Vkernel-arch
p786
Vmips
p787
sg61
(lp788
g63
ass(Vdescription
p789
g34
g524
Vamd64
p790
tp791
(dp792
Vparts
p793
(lp794
Vxen
p795
ass(Vdescription
p796
g14
NVloongson-2f
p797
tp798
(dp799
Vhardware
p800
VLoongson 2F
p801
sVhardware-long
p802
VLemote Loongson 2F systems
p803
ss(Vimage
p804
g65
NV686-pae
p805
tp806
(dp807
Vconfigs
p808
(lp809
Vkernelarch-x86/config-arch-32
p810
aVi386/config.686-pae
p811
asVrecommends
p812
Vlibc6-i686
p813
ss(Vdescription
p814
g115
NVs390x
p815
tp816
(dp817
Vhardware
p818
VIBM zSeries
p819
ss(g213
g115
g63
tp820
(dp821
g217
(lp822
Vs390x
p823
asg220
I01
ss(g213
g102
g63
tp824
(dp825
g217
(lp826
Vpowerpc
p827
aVpowerpc-smp
p828
aVpowerpc64
p829
asg220
I01
ss(Vimage
p830
g48
NVsh7785lcr
p831
tp832
(dp833
Vcheck-size
p834
L4194304L
sVrecommends
p835
Vu-boot-tools
p836
ss(Vbase
p837
g214
tp838
(dp839
Vkernel-arch
p840
Vpowerpc
p841
sg61
(lp842
g63
ass(g213
g56
g63
tp843
(dp844
g217
(lp845
Vmarvell
p846
aVversatile
p847
asg220
I01
ss(Vbuild
p848
g250
tp849
(dp850
Vvdso
p851
I01
sVimage-file
p852
Varch/arm64/boot/Image
p853
sVdebug-info
p854
I01
ss(Vdescription
p855
g278
NVsparc64-smp
p856
tp857
(dp858
Vhardware
p859
Vmultiprocessor 64-bit UltraSPARC
p860
ss(Vbuild
p861
g102
tp862
(dp863
Vvdso
p864
I01
sVimage-file
p865
Vvmlinux
p866
ss(Vdescription
p867
g56
NVmarvell
p868
tp869
(dp870
Vhardware
p871
VMarvell Kirkwood/Orion
p872
sVhardware-long
p873
VMarvell Kirkwood based systems (SheevaPlug, QNAP TS-119/TS-219, etc)\u000aand Orion 5181, 5182 and 5281 based systems (QNAP TS-109/TS-209, etc)
p874
ss(Vrelations
p875
g115
tp876
(dp877
Vheaders%gcc-4.9
p878
Vlinux-compiler-gcc-4.9-s390
p879
ss(Vdescription
p880
g153
NVpowerpc64le
p881
tp882
(dp883
Vhardware
p884
VLittle-endian 64-bit PowerPC
p885
ss(Vbase
p886
Vsparc
p887
tp888
(dp889
Vkernel-arch
p890
Vsparc
p891
sVfeaturesets
p892
(lp893
ss(Vdescription
p894
g65
NV686
p895
tp896
(dp897
Vhardware
p898
Volder PCs
p899
sVhardware-long
p900
VPCs with one or more processors not supporting PAE
p901
ss(Vbase
p902
g115
tp903
(dp904
Vkernel-arch
p905
Vs390
p906
sg61
(lp907
g63
ass(g213
g222
g63
tp908
(dp909
g217
(lp910
Vparisc
p911
aVparisc64-smp
p912
asg220
I01
ss(Vdescription
p913
g84
NVocteon
p914
tp915
(dp916
Vhardware
p917
VOcteon
p918
sVhardware-long
p919
VCavium Networks Octeon
p920
ss(Vdescription
p921
g166
NVloongson-3
p922
tp923
(dp924
Vhardware
p925
VLoongson 3A/3B
p926
sVhardware-long
p927
VLoongson 3A or 3B based systems (e.g. from Loongson or Lemote)
p928
ss(Vbuild
p929
g115
NVs390x
p930
tp931
(dp932
Vdebug-info
p933
I01
ss(Vimage
p934
g278
NVsparc64-smp
p935
tp936
(dp937
Vconfigs
p938
(lp939
Vkernelarch-sparc/config-smp
p940
ass(Vbase
p941
g34
tp942
(dp943
Vkernel-arch
p944
Vx86
p945
sVfeaturesets
p946
(lp947
Vnone
p948
asVcompiler
p949
Vgcc-4.9
p950
ss(Vimage
p951
g166
NV5kc-malta
p952
tp953
(dp954
Vconfigs
p955
(lp956
Vkernelarch-mips/config.5kc-malta
p957
ass(Vdescription
p958
g48
NVsh7785lcr
p959
tp960
(dp961
Vhardware
p962
Vsh7785lcr
p963
sVhardware-long
p964
VRenesas SH7785 reference board
p965
ss(Vbase
p966
g22
tp967
(dp968
Vkernel-arch
p969
Vm68k
p970
sg61
(lp971
g63
asVcflags
p972
V-ffreestanding
p973
sVcompiler
p974
Vgcc-4.8
p975
ss(Vdescription
p976
g250
NVarm64
p977
tp978
(dp979
Vhardware
p980
V64-bit ARMv8 machines
p981
ss(Vbase
p982
Vs390
p983
tp984
(dp985
Vkernel-arch
p986
Vs390
p987
sVfeaturesets
p988
(lp989
ss(Vbuild
p990
g56
tp991
(dp992
Vimage-file
p993
Varch/arm/boot/zImage
p994
ss(Vbuild
p995
g14
tp996
(dp997
Vimage-file
p998
Vvmlinux
p999
ss(Vxen
p1000
g34
g524
Vamd64
p1001
tp1002
(dp1003
Vflavours
p1004
(lp1005
Vamd64
p1006
ass(Vdescription
p1007
g299
NVpowerpc64
p1008
tp1009
(dp1010
Vhardware
p1011
V64-bit PowerPC
p1012
ss(Vimage
p1013
g84
tp1014
(dp1015
Vinstall-stem
p1016
Vvmlinux
p1017
ss(g213
g22
g63
tp1018
(dp1019
g217
(lp1020
Vm68k
p1021
asg220
I01
ss(Vbase
p1022
g166
tp1023
(dp1024
Vkernel-arch
p1025
Vmips
p1026
sg61
(lp1027
g63
ass(Vbuild
p1028
g65
tp1029
(dp1030
Vvdso
p1031
I01
sVimage-file
p1032
Varch/x86/boot/bzImage
p1033
ss(Vbase
p1034
g65
Vnone
p1035
tp1036
(dp1037
Vflavours
p1038
(lp1039
V686
p1040
aV686-pae
p1041
ass(Vdescription
p1042
g214
tp1043
(dp1044
Vhardware
p1045
V32-bit PowerPC with SPE (instead of AltiVec) with SMP support
p1046
ss(Vimage
p1047
g5
NV4kc-malta
p1048
tp1049
(dp1050
Vconfigs
p1051
(lp1052
Vkernelarch-mips/config.4kc-malta
p1053
ass(Vbuild
p1054
g222
tp1055
(dp1056
Vimage-file
p1057
Vvmlinux
p1058
ss(Vimage
p1059
g166
NVloongson-3
p1060
tp1061
(dp1062
Vconfigs
p1063
(lp1064
Vkernelarch-mips/config.loongson-3
p1065
ass(Vbase
p1066
Vor1k
p1067
tp1068
(dp1069
Vkernel-arch
p1070
Vopenrisc
p1071
sVfeaturesets
p1072
(lp1073
ss(Vimage
p1074
g214
tp1075
(dp1076
Vinstall-stem
p1077
Vvmlinux
p1078
sVsuggests
p1079
Vmkvmlinuz
p1080
ss(Vdescription
p1081
g166
NVocteon
p1082
tp1083
(dp1084
Vhardware
p1085
VOcteon
p1086
sVhardware-long
p1087
VCavium Networks Octeon
p1088
ss(Vbuild
p1089
g115
tp1090
(dp1091
Vvdso
p1092
I01
sVimage-file
p1093
Varch/s390/boot/image
p1094
ss(Vdescription
p1095
g65
tp1096
(dp1097
Vpart-long-pae
p1098
VThis kernel requires PAE (Physical Address Extension).\u000aThis feature is supported by the Intel Pentium Pro/II/III/4/4M/D, Xeon,\u000aCore and Atom; AMD Geode NX, Athlon (K7), Duron, Opteron, Sempron,\u000aTurion or Phenom; Transmeta Efficeon; VIA C7; and some other processors.
p1099
ss(g213
g42
g63
tp1100
(dp1101
g217
(lp1102
Valpha-generic
p1103
aValpha-smp
p1104
asg220
I01
ss(Vimage
p1105
tp1106
(dp1107
Vinitramfs-generators
p1108
(lp1109
Vinitramfs-tools
p1110
aVinitramfs-fallback
p1111
ass(Vdescription
p1112
g56
NVversatile
p1113
tp1114
(dp1115
Vhardware
p1116
VVersatile
p1117
sVhardware-long
p1118
VVersatile systems (PB, AB, Qemu)
p1119
ss(Vimage
p1120
g299
tp1121
(dp1122
Vinstall-stem
p1123
Vvmlinux
p1124
sVsuggests
p1125
Vmkvmlinuz
p1126
sVconfigs
p1127
(lp1128
ss(Vimage
p1129
g14
NVloongson-2e
p1130
tp1131
(dp1132
Vconfigs
p1133
(lp1134
Vkernelarch-mips/config.loongson-2e
p1135
ass(Vimage
p1136
g278
tp1137
(dp1138
Vinstall-stem
p1139
Vvmlinuz
p1140
sVsuggests
p1141
Vsilo, fdutils
p1142
sVconfigs
p1143
(lp1144
ss(Vimage
p1145
g5
NVocteon
p1146
tp1147
(dp1148
Vconfigs
p1149
(lp1150
Vkernelarch-mips/config.octeon
p1151
ass(g213
g299
g63
tp1152
(dp1153
g217
(lp1154
Vpowerpc64
p1155
asg220
I01
ss(Vdescription
p1156
g42
NValpha-generic
p1157
tp1158
(dp1159
Vhardware
p1160
VAlpha
p1161
sVhardware-long
p1162
VDEC Alpha systems with extended kernel start address (Wildfire, Titan, Marvel)
p1163
ss(Vdescription
p1164
g65
g1035
V686-pae
p1165
tp1166
(dp1167
Vparts
p1168
(lp1169
Vxen
p1170
ass(Vimage
p1171
g250
tp1172
(dp1173
Vinstall-stem
p1174
Vvmlinuz
p1175
ss(Vdescription
p1176
g34
NVamd64
p1177
tp1178
(dp1179
Vhardware
p1180
V64-bit PCs
p1181
sVhardware-long
p1182
VPCs with AMD64, Intel 64 or VIA Nano processors
p1183
sstp1184
Rp1185
.